
AVRASM ver. 2.1.30  D:\Univ\Project\FFT\Programs\TESTs\ADC Tests\ADC Test V - 003 - double DMA - Keypad\List\at.asm Sun Feb 10 13:02:54 2013

D:\Univ\Project\FFT\Programs\TESTs\ADC Tests\ADC Test V - 003 - double DMA - Keypad\List\at.asm(1171): warning: Register r3 already defined by the .DEF directive
D:\Univ\Project\FFT\Programs\TESTs\ADC Tests\ADC Test V - 003 - double DMA - Keypad\List\at.asm(1172): warning: Register r4 already defined by the .DEF directive
D:\Univ\Project\FFT\Programs\TESTs\ADC Tests\ADC Test V - 003 - double DMA - Keypad\List\at.asm(1173): warning: Register r2 already defined by the .DEF directive
D:\Univ\Project\FFT\Programs\TESTs\ADC Tests\ADC Test V - 003 - double DMA - Keypad\List\at.asm(1174): warning: Register r7 already defined by the .DEF directive
D:\Univ\Project\FFT\Programs\TESTs\ADC Tests\ADC Test V - 003 - double DMA - Keypad\List\at.asm(1175): warning: Register r6 already defined by the .DEF directive
D:\Univ\Project\FFT\Programs\TESTs\ADC Tests\ADC Test V - 003 - double DMA - Keypad\List\at.asm(1176): warning: Register r9 already defined by the .DEF directive
D:\Univ\Project\FFT\Programs\TESTs\ADC Tests\ADC Test V - 003 - double DMA - Keypad\List\at.asm(1177): warning: Register r8 already defined by the .DEF directive
D:\Univ\Project\FFT\Programs\TESTs\ADC Tests\ADC Test V - 003 - double DMA - Keypad\List\at.asm(1178): warning: Register r11 already defined by the .DEF directive
D:\Univ\Project\FFT\Programs\TESTs\ADC Tests\ADC Test V - 003 - double DMA - Keypad\List\at.asm(1179): warning: Register r10 already defined by the .DEF directive
D:\Univ\Project\FFT\Programs\TESTs\ADC Tests\ADC Test V - 003 - double DMA - Keypad\List\at.asm(1180): warning: Register r13 already defined by the .DEF directive
D:\Univ\Project\FFT\Programs\TESTs\ADC Tests\ADC Test V - 003 - double DMA - Keypad\List\at.asm(1181): warning: Register r12 already defined by the .DEF directive
                 
                 
                 ;CodeVisionAVR C Compiler V2.05.3 Standard
                 ;(C) Copyright 1998-2011 Pavel Haiduc, HP InfoTech s.r.l.
                 ;http://www.hpinfotech.com
                 
                 ;Chip type                : ATxmega128A1
                 ;Program type             : Application
                 ;Clock frequency          : 32.000000 MHz
                 ;Memory model             : Small
                 ;Optimize for             : Speed
                 ;(s)printf features       : int, width
                 ;(s)scanf features        : int, width
                 ;External RAM size        : 0
                 ;Data Stack size          : 2048 byte(s)
                 ;Heap size                : 0 byte(s)
                 ;Promote 'char' to 'int'  : Yes
                 ;'char' is unsigned       : Yes
                 ;8 bit enums              : Yes
                 ;Global 'const' stored in FLASH     : No
                 ;Enhanced function parameter passing: Yes
                 ;Enhanced core instructions         : On
                 ;Smart register allocation          : On
                 ;Automatic register allocation      : On
                 
                 	#pragma AVRPART ADMIN PART_NAME ATxmega128A1
                 	#pragma AVRPART MEMORY PROG_FLASH 135168
                 	#pragma AVRPART MEMORY EEPROM 2048
                 	#pragma AVRPART MEMORY INT_SRAM SIZE 16383
                 	#pragma AVRPART MEMORY INT_SRAM START_ADDR 0x2000
                 
                 	#define CALL_SUPPORTED 1
                 
                 	.LISTMAC
                 	.EQU CCP=0x34
                 	.EQU RAMPD=0x38
                 	.EQU RAMPX=0x39
                 	.EQU RAMPY=0x3A
                 	.EQU RAMPZ=0x3B
                 	.EQU EIND=0x3C
                 	.EQU WDT_CTRL=0x80
                 	.EQU PMIC_CTRL=0xA2
                 	.EQU NVM_ADDR0=0X01C0
                 	.EQU NVM_ADDR1=NVM_ADDR0+1
                 	.EQU NVM_ADDR2=NVM_ADDR1+1
                 	.EQU NVM_DATA0=NVM_ADDR0+4
                 	.EQU NVM_CMD=NVM_ADDR0+0xA
                 	.EQU NVM_CTRLA=NVM_ADDR0+0xB
                 	.EQU NVM_CTRLB=NVM_ADDR0+0xC
                 	.EQU NVM_STATUS=NVM_ADDR0+0xF
                 	.EQU PORTCFG_MPCMASK=0xB0
                 	.EQU PORTH_DIR=0x6E0
                 	.EQU PORTH_OUT=0x6E4
                 	.EQU PORTH_PIN0CTRL=0x6F0
                 	.EQU PORTJ_DIR=0x700
                 	.EQU PORTJ_OUT=0x704
                 	.EQU PORTJ_PIN0CTRL=0x710
                 	.EQU PORTK_DIR=0x720
                 	.EQU PORTK_OUT=0x724
                 	.EQU PORTK_PIN0CTRL=0x730
                 	.EQU EBI_CTRL=0x0440
                 	.EQU EBI_SDRAMCTRLA=EBI_CTRL+1
                 	.EQU EBI_REFRESHL=EBI_CTRL+4
                 	.EQU EBI_REFRESHH=EBI_CTRL+5
                 	.EQU EBI_INITDLYL=EBI_CTRL+6
                 	.EQU EBI_INITDLYH=EBI_CTRL+7
                 	.EQU EBI_SDRAMCTRLB=EBI_CTRL+8
                 	.EQU EBI_SDRAMCTRLC=EBI_CTRL+9
                 	.EQU EBI_CS0_CTRLA=EBI_CTRL+0x10
                 	.EQU EBI_CS0_CTRLB=EBI_CS0_CTRLA+1
                 	.EQU EBI_CS0_BASEADDRL=EBI_CS0_CTRLA+2
                 	.EQU EBI_CS0_BASEADDRH=EBI_CS0_CTRLA+3
                 	.EQU EBI_CS1_CTRLA=EBI_CTRL+0x14
                 	.EQU EBI_CS1_CTRLB=EBI_CS1_CTRLA+1
                 	.EQU EBI_CS1_BASEADDRL=EBI_CS1_CTRLA+2
                 	.EQU EBI_CS1_BASEADDRH=EBI_CS1_CTRLA+3
                 	.EQU EBI_CS2_CTRLA=EBI_CTRL+0x18
                 	.EQU EBI_CS2_CTRLB=EBI_CS2_CTRLA+1
                 	.EQU EBI_CS2_BASEADDRL=EBI_CS2_CTRLA+2
                 	.EQU EBI_CS2_BASEADDRH=EBI_CS2_CTRLA+3
                 	.EQU EBI_CS3_CTRLA=EBI_CTRL+0x1C
                 	.EQU EBI_CS3_CTRLB=EBI_CS3_CTRLA+1
                 	.EQU EBI_CS3_BASEADDRL=EBI_CS3_CTRLA+2
                 	.EQU EBI_CS3_BASEADDRH=EBI_CS3_CTRLA+3
                 	.EQU EBI_SDCAS_bp=3
                 	.EQU EBI_SDCAS_bm=8
                 	.EQU EBI_SDROW_bp=2
                 	.EQU EBI_SDROW_bm=4
                 	.EQU EBI_SDCOL_bp=0
                 	.EQU EBI_MRDLY_bp=6
                 	.EQU EBI_ROWCYCDLY_bp=3
                 	.EQU EBI_RPDLY_bp=0
                 	.EQU EBI_WRDLY_bp=6
                 	.EQU EBI_ESRDLY_bp=3
                 	.EQU EBI_ROWCOLDLY_bp=0
                 	.EQU EBI_CS_SDSREN_bm=4
                 	.EQU EBI_CS_ASPACE_256B_gc=0x00<<2
                 	.EQU EBI_CS_ASPACE_512B_gc=0x01<<2
                 	.EQU EBI_CS_ASPACE_1KB_gc=0x02<<2
                 	.EQU EBI_CS_ASPACE_2KB_gc=0x03<<2
                 	.EQU EBI_CS_ASPACE_4KB_gc=0x04<<2
                 	.EQU EBI_CS_ASPACE_8KB_gc=0x05<<2
                 	.EQU EBI_CS_ASPACE_16KB_gc=0x06<<2
                 	.EQU EBI_CS_ASPACE_32KB_gc=0x07<<2
                 	.EQU EBI_CS_ASPACE_64KB_gc=0x08<<2
                 	.EQU EBI_CS_ASPACE_128KB_gc=0x09<<2
                 	.EQU EBI_CS_ASPACE_256KB_gc=0x0A<<2
                 	.EQU EBI_CS_ASPACE_512KB_gc=0x0B<<2
                 	.EQU EBI_CS_ASPACE_1MB_gc=0x0C<<2
                 	.EQU EBI_CS_ASPACE_2MB_gc=0x0D<<2
                 	.EQU EBI_CS_ASPACE_4MB_gc=0x0E<<2
                 	.EQU EBI_CS_ASPACE_8MB_gc=0x0F<<2
                 	.EQU EBI_CS_ASPACE_16M_gc=0x10<<2
                 	.EQU EBI_CS_MODE_DISABLED_gc=0x00
                 	.EQU EBI_CS_MODE_SRAM_gc=0x01
                 	.EQU EBI_CS_MODE_LPC_gc=0x02
                 	.EQU EBI_CS_MODE_SDRAM_gc=0x03
                 	.EQU EBI_SDDATAW_4BIT_gc=0x00<<6
                 	.EQU EBI_SDDATAW_8BIT_gc=0x01<<6
                 	.EQU EBI_LPCMODE_ALE1_gc=0x00<<4
                 	.EQU EBI_LPCMODE_ALE12_gc=0x02<<4
                 	.EQU EBI_SRMODE_ALE1_gc=0x00<<2
                 	.EQU EBI_SRMODE_ALE2_gc=0x01<<2
                 	.EQU EBI_SRMODE_ALE12_gc=0x02<<2
                 	.EQU EBI_SRMODE_NOALE_gc=0x03<<2
                 	.EQU EBI_IFMODE_DISABLED_gc=0x00
                 	.EQU EBI_IFMODE_3PORT_gc=0x01
                 	.EQU EBI_IFMODE_4PORT_gc=0x02
                 	.EQU EBI_IFMODE_2PORT_gc=0x03
                 	.EQU EBI_SDCOL_8BIT_gc=0x00
                 	.EQU EBI_SDCOL_9BIT_gc=0x01
                 	.EQU EBI_SDCOL_10BIT_gc=0x02
                 	.EQU EBI_SDCOL_11BIT_gc=0x03
                 	.EQU SPL=0x3D
                 	.EQU SPH=0x3E
                 	.EQU SREG=0x3F
                 	.EQU GPIO0=0x00
                 	.EQU GPIO1=0x01
                 	.EQU GPIO2=0x02
                 	.EQU GPIO3=0x03
                 	.EQU GPIO4=0x04
                 	.EQU GPIO5=0x05
                 	.EQU GPIO6=0x06
                 	.EQU GPIO7=0x07
                 	.EQU GPIO8=0x08
                 	.EQU GPIO9=0x09
                 	.EQU GPIO10=0x0A
                 	.EQU GPIO11=0x0B
                 	.EQU GPIO12=0x0C
                 	.EQU GPIO13=0x0D
                 	.EQU GPIO14=0x0E
                 	.EQU GPIO15=0x0F
                 
                 	.DEF R0X0=R0
                 	.DEF R0X1=R1
                 	.DEF R0X2=R2
                 	.DEF R0X3=R3
                 	.DEF R0X4=R4
                 	.DEF R0X5=R5
                 	.DEF R0X6=R6
                 	.DEF R0X7=R7
                 	.DEF R0X8=R8
                 	.DEF R0X9=R9
                 	.DEF R0XA=R10
                 	.DEF R0XB=R11
                 	.DEF R0XC=R12
                 	.DEF R0XD=R13
                 	.DEF R0XE=R14
                 	.DEF R0XF=R15
                 	.DEF R0X10=R16
                 	.DEF R0X11=R17
                 	.DEF R0X12=R18
                 	.DEF R0X13=R19
                 	.DEF R0X14=R20
                 	.DEF R0X15=R21
                 	.DEF R0X16=R22
                 	.DEF R0X17=R23
                 	.DEF R0X18=R24
                 	.DEF R0X19=R25
                 	.DEF R0X1A=R26
                 	.DEF R0X1B=R27
                 	.DEF R0X1C=R28
                 	.DEF R0X1D=R29
                 	.DEF R0X1E=R30
                 	.DEF R0X1F=R31
                 
                 	.EQU __SRAM_START=0x2000
                 	.EQU __SRAM_END=0x3FFF
                 	.EQU __DSTACK_SIZE=0x0800
                 	.EQU __HEAP_SIZE=0x0000
                 	.EQU __CLEAR_SRAM_SIZE=__SRAM_END-__SRAM_START+1
                 
                 	.MACRO __CPD1N
                 	CPI  R30,LOW(@0)
                 	LDI  R26,HIGH(@0)
                 	CPC  R31,R26
                 	LDI  R26,BYTE3(@0)
                 	CPC  R22,R26
                 	LDI  R26,BYTE4(@0)
                 	CPC  R23,R26
                 	.ENDM
                 
                 	.MACRO __CPD2N
                 	CPI  R26,LOW(@0)
                 	LDI  R30,HIGH(@0)
                 	CPC  R27,R30
                 	LDI  R30,BYTE3(@0)
                 	CPC  R24,R30
                 	LDI  R30,BYTE4(@0)
                 	CPC  R25,R30
                 	.ENDM
                 
                 	.MACRO __CPWRR
                 	CP   R@0,R@2
                 	CPC  R@1,R@3
                 	.ENDM
                 
                 	.MACRO __CPWRN
                 	CPI  R@0,LOW(@2)
                 	LDI  R30,HIGH(@2)
                 	CPC  R@1,R30
                 	.ENDM
                 
                 	.MACRO __ADDB1MN
                 	SUBI R30,LOW(-@0-(@1))
                 	.ENDM
                 
                 	.MACRO __ADDB2MN
                 	SUBI R26,LOW(-@0-(@1))
                 	.ENDM
                 
                 	.MACRO __ADDW1MN
                 	SUBI R30,LOW(-@0-(@1))
                 	SBCI R31,HIGH(-@0-(@1))
                 	.ENDM
                 
                 	.MACRO __ADDW2MN
                 	SUBI R26,LOW(-@0-(@1))
                 	SBCI R27,HIGH(-@0-(@1))
                 	.ENDM
                 
                 	.MACRO __ADDW1FN
                 	SUBI R30,LOW(-2*@0-(@1))
                 	SBCI R31,HIGH(-2*@0-(@1))
                 	.ENDM
                 
                 	.MACRO __ADDD1FN
                 	SUBI R30,LOW(-2*@0-(@1))
                 	SBCI R31,HIGH(-2*@0-(@1))
                 	SBCI R22,BYTE3(-2*@0-(@1))
                 	.ENDM
                 
                 	.MACRO __ADDD1N
                 	SUBI R30,LOW(-@0)
                 	SBCI R31,HIGH(-@0)
                 	SBCI R22,BYTE3(-@0)
                 	SBCI R23,BYTE4(-@0)
                 	.ENDM
                 
                 	.MACRO __ADDD2N
                 	SUBI R26,LOW(-@0)
                 	SBCI R27,HIGH(-@0)
                 	SBCI R24,BYTE3(-@0)
                 	SBCI R25,BYTE4(-@0)
                 	.ENDM
                 
                 	.MACRO __SUBD1N
                 	SUBI R30,LOW(@0)
                 	SBCI R31,HIGH(@0)
                 	SBCI R22,BYTE3(@0)
                 	SBCI R23,BYTE4(@0)
                 	.ENDM
                 
                 	.MACRO __SUBD2N
                 	SUBI R26,LOW(@0)
                 	SBCI R27,HIGH(@0)
                 	SBCI R24,BYTE3(@0)
                 	SBCI R25,BYTE4(@0)
                 	.ENDM
                 
                 	.MACRO __ANDBMNN
                 	LDS  R30,@0+(@1)
                 	ANDI R30,LOW(@2)
                 	STS  @0+(@1),R30
                 	.ENDM
                 
                 	.MACRO __ANDWMNN
                 	LDS  R30,@0+(@1)
                 	ANDI R30,LOW(@2)
                 	STS  @0+(@1),R30
                 	LDS  R30,@0+(@1)+1
                 	ANDI R30,HIGH(@2)
                 	STS  @0+(@1)+1,R30
                 	.ENDM
                 
                 	.MACRO __ANDD1N
                 	ANDI R30,LOW(@0)
                 	ANDI R31,HIGH(@0)
                 	ANDI R22,BYTE3(@0)
                 	ANDI R23,BYTE4(@0)
                 	.ENDM
                 
                 	.MACRO __ANDD2N
                 	ANDI R26,LOW(@0)
                 	ANDI R27,HIGH(@0)
                 	ANDI R24,BYTE3(@0)
                 	ANDI R25,BYTE4(@0)
                 	.ENDM
                 
                 	.MACRO __ORBMNN
                 	LDS  R30,@0+(@1)
                 	ORI  R30,LOW(@2)
                 	STS  @0+(@1),R30
                 	.ENDM
                 
                 	.MACRO __ORWMNN
                 	LDS  R30,@0+(@1)
                 	ORI  R30,LOW(@2)
                 	STS  @0+(@1),R30
                 	LDS  R30,@0+(@1)+1
                 	ORI  R30,HIGH(@2)
                 	STS  @0+(@1)+1,R30
                 	.ENDM
                 
                 	.MACRO __ORD1N
                 	ORI  R30,LOW(@0)
                 	ORI  R31,HIGH(@0)
                 	ORI  R22,BYTE3(@0)
                 	ORI  R23,BYTE4(@0)
                 	.ENDM
                 
                 	.MACRO __ORD2N
                 	ORI  R26,LOW(@0)
                 	ORI  R27,HIGH(@0)
                 	ORI  R24,BYTE3(@0)
                 	ORI  R25,BYTE4(@0)
                 	.ENDM
                 
                 	.MACRO __DELAY_USB
                 	LDI  R24,LOW(@0)
                 __DELAY_USB_LOOP:
                 	DEC  R24
                 	BRNE __DELAY_USB_LOOP
                 	.ENDM
                 
                 	.MACRO __DELAY_USW
                 	LDI  R24,LOW(@0)
                 	LDI  R25,HIGH(@0)
                 __DELAY_USW_LOOP:
                 	SBIW R24,1
                 	BRNE __DELAY_USW_LOOP
                 	.ENDM
                 
                 	.MACRO __GETD1S
                 	LDD  R30,Y+@0
                 	LDD  R31,Y+@0+1
                 	LDD  R22,Y+@0+2
                 	LDD  R23,Y+@0+3
                 	.ENDM
                 
                 	.MACRO __GETD2S
                 	LDD  R26,Y+@0
                 	LDD  R27,Y+@0+1
                 	LDD  R24,Y+@0+2
                 	LDD  R25,Y+@0+3
                 	.ENDM
                 
                 	.MACRO __PUTD1S
                 	STD  Y+@0,R30
                 	STD  Y+@0+1,R31
                 	STD  Y+@0+2,R22
                 	STD  Y+@0+3,R23
                 	.ENDM
                 
                 	.MACRO __PUTD2S
                 	STD  Y+@0,R26
                 	STD  Y+@0+1,R27
                 	STD  Y+@0+2,R24
                 	STD  Y+@0+3,R25
                 	.ENDM
                 
                 	.MACRO __PUTDZ2
                 	STD  Z+@0,R26
                 	STD  Z+@0+1,R27
                 	STD  Z+@0+2,R24
                 	STD  Z+@0+3,R25
                 	.ENDM
                 
                 	.MACRO __CLRD1S
                 	STD  Y+@0,R30
                 	STD  Y+@0+1,R30
                 	STD  Y+@0+2,R30
                 	STD  Y+@0+3,R30
                 	.ENDM
                 
                 	.MACRO __POINTB1MN
                 	LDI  R30,LOW(@0+(@1))
                 	.ENDM
                 
                 	.MACRO __POINTW1MN
                 	LDI  R30,LOW(@0+(@1))
                 	LDI  R31,HIGH(@0+(@1))
                 	.ENDM
                 
                 	.MACRO __POINTD1M
                 	LDI  R30,LOW(@0)
                 	LDI  R31,HIGH(@0)
                 	LDI  R22,BYTE3(@0)
                 	LDI  R23,BYTE4(@0)
                 	.ENDM
                 
                 	.MACRO __POINTW1FN
                 	LDI  R30,LOW(2*@0+(@1))
                 	LDI  R31,HIGH(2*@0+(@1))
                 	.ENDM
                 
                 	.MACRO __POINTD1FN
                 	LDI  R30,LOW(2*@0+(@1))
                 	LDI  R31,HIGH(2*@0+(@1))
                 	LDI  R22,BYTE3(2*@0+(@1))
                 	LDI  R23,BYTE4(2*@0+(@1))
                 	.ENDM
                 
                 	.MACRO __POINTB2MN
                 	LDI  R26,LOW(@0+(@1))
                 	.ENDM
                 
                 	.MACRO __POINTW2MN
                 	LDI  R26,LOW(@0+(@1))
                 	LDI  R27,HIGH(@0+(@1))
                 	.ENDM
                 
                 	.MACRO __POINTW2FN
                 	LDI  R26,LOW(2*@0+(@1))
                 	LDI  R27,HIGH(2*@0+(@1))
                 	.ENDM
                 
                 	.MACRO __POINTD2FN
                 	LDI  R26,LOW(2*@0+(@1))
                 	LDI  R27,HIGH(2*@0+(@1))
                 	LDI  R24,BYTE3(2*@0+(@1))
                 	LDI  R25,BYTE4(2*@0+(@1))
                 	.ENDM
                 
                 	.MACRO __POINTBRM
                 	LDI  R@0,LOW(@1)
                 	.ENDM
                 
                 	.MACRO __POINTWRM
                 	LDI  R@0,LOW(@2)
                 	LDI  R@1,HIGH(@2)
                 	.ENDM
                 
                 	.MACRO __POINTBRMN
                 	LDI  R@0,LOW(@1+(@2))
                 	.ENDM
                 
                 	.MACRO __POINTWRMN
                 	LDI  R@0,LOW(@2+(@3))
                 	LDI  R@1,HIGH(@2+(@3))
                 	.ENDM
                 
                 	.MACRO __POINTWRFN
                 	LDI  R@0,LOW(@2*2+(@3))
                 	LDI  R@1,HIGH(@2*2+(@3))
                 	.ENDM
                 
                 	.MACRO __GETD1N
                 	LDI  R30,LOW(@0)
                 	LDI  R31,HIGH(@0)
                 	LDI  R22,BYTE3(@0)
                 	LDI  R23,BYTE4(@0)
                 	.ENDM
                 
                 	.MACRO __GETD2N
                 	LDI  R26,LOW(@0)
                 	LDI  R27,HIGH(@0)
                 	LDI  R24,BYTE3(@0)
                 	LDI  R25,BYTE4(@0)
                 	.ENDM
                 
                 	.MACRO __GETB1MN
                 	LDS  R30,@0+(@1)
                 	.ENDM
                 
                 	.MACRO __GETB1HMN
                 	LDS  R31,@0+(@1)
                 	.ENDM
                 
                 	.MACRO __GETW1MN
                 	LDS  R30,@0+(@1)
                 	LDS  R31,@0+(@1)+1
                 	.ENDM
                 
                 	.MACRO __GETD1MN
                 	LDS  R30,@0+(@1)
                 	LDS  R31,@0+(@1)+1
                 	LDS  R22,@0+(@1)+2
                 	LDS  R23,@0+(@1)+3
                 	.ENDM
                 
                 	.MACRO __GETBRMN
                 	LDS  R@0,@1+(@2)
                 	.ENDM
                 
                 	.MACRO __GETWRMN
                 	LDS  R@0,@2+(@3)
                 	LDS  R@1,@2+(@3)+1
                 	.ENDM
                 
                 	.MACRO __GETWRZ
                 	LDD  R@0,Z+@2
                 	LDD  R@1,Z+@2+1
                 	.ENDM
                 
                 	.MACRO __GETD2Z
                 	LDD  R26,Z+@0
                 	LDD  R27,Z+@0+1
                 	LDD  R24,Z+@0+2
                 	LDD  R25,Z+@0+3
                 	.ENDM
                 
                 	.MACRO __GETB2MN
                 	LDS  R26,@0+(@1)
                 	.ENDM
                 
                 	.MACRO __GETW2MN
                 	LDS  R26,@0+(@1)
                 	LDS  R27,@0+(@1)+1
                 	.ENDM
                 
                 	.MACRO __GETD2MN
                 	LDS  R26,@0+(@1)
                 	LDS  R27,@0+(@1)+1
                 	LDS  R24,@0+(@1)+2
                 	LDS  R25,@0+(@1)+3
                 	.ENDM
                 
                 	.MACRO __PUTB1MN
                 	STS  @0+(@1),R30
                 	.ENDM
                 
                 	.MACRO __PUTW1MN
                 	STS  @0+(@1),R30
                 	STS  @0+(@1)+1,R31
                 	.ENDM
                 
                 	.MACRO __PUTD1MN
                 	STS  @0+(@1),R30
                 	STS  @0+(@1)+1,R31
                 	STS  @0+(@1)+2,R22
                 	STS  @0+(@1)+3,R23
                 	.ENDM
                 
                 	.MACRO __PUTB1EN
                 	LDI  R26,LOW(@0+(@1))
                 	LDI  R27,HIGH(@0+(@1))
                 	CALL __EEPROMWRB
                 	.ENDM
                 
                 	.MACRO __PUTW1EN
                 	LDI  R26,LOW(@0+(@1))
                 	LDI  R27,HIGH(@0+(@1))
                 	CALL __EEPROMWRW
                 	.ENDM
                 
                 	.MACRO __PUTD1EN
                 	LDI  R26,LOW(@0+(@1))
                 	LDI  R27,HIGH(@0+(@1))
                 	CALL __EEPROMWRD
                 	.ENDM
                 
                 	.MACRO __PUTBR0MN
                 	STS  @0+(@1),R0
                 	.ENDM
                 
                 	.MACRO __PUTBMRN
                 	STS  @0+(@1),R@2
                 	.ENDM
                 
                 	.MACRO __PUTWMRN
                 	STS  @0+(@1),R@2
                 	STS  @0+(@1)+1,R@3
                 	.ENDM
                 
                 	.MACRO __PUTBZR
                 	STD  Z+@1,R@0
                 	.ENDM
                 
                 	.MACRO __PUTWZR
                 	STD  Z+@2,R@0
                 	STD  Z+@2+1,R@1
                 	.ENDM
                 
                 	.MACRO __GETW1R
                 	MOV  R30,R@0
                 	MOV  R31,R@1
                 	.ENDM
                 
                 	.MACRO __GETW2R
                 	MOV  R26,R@0
                 	MOV  R27,R@1
                 	.ENDM
                 
                 	.MACRO __GETWRN
                 	LDI  R@0,LOW(@2)
                 	LDI  R@1,HIGH(@2)
                 	.ENDM
                 
                 	.MACRO __PUTW1R
                 	MOV  R@0,R30
                 	MOV  R@1,R31
                 	.ENDM
                 
                 	.MACRO __PUTW2R
                 	MOV  R@0,R26
                 	MOV  R@1,R27
                 	.ENDM
                 
                 	.MACRO __ADDWRN
                 	SUBI R@0,LOW(-@2)
                 	SBCI R@1,HIGH(-@2)
                 	.ENDM
                 
                 	.MACRO __ADDWRR
                 	ADD  R@0,R@2
                 	ADC  R@1,R@3
                 	.ENDM
                 
                 	.MACRO __SUBWRN
                 	SUBI R@0,LOW(@2)
                 	SBCI R@1,HIGH(@2)
                 	.ENDM
                 
                 	.MACRO __SUBWRR
                 	SUB  R@0,R@2
                 	SBC  R@1,R@3
                 	.ENDM
                 
                 	.MACRO __ANDWRN
                 	ANDI R@0,LOW(@2)
                 	ANDI R@1,HIGH(@2)
                 	.ENDM
                 
                 	.MACRO __ANDWRR
                 	AND  R@0,R@2
                 	AND  R@1,R@3
                 	.ENDM
                 
                 	.MACRO __ORWRN
                 	ORI  R@0,LOW(@2)
                 	ORI  R@1,HIGH(@2)
                 	.ENDM
                 
                 	.MACRO __ORWRR
                 	OR   R@0,R@2
                 	OR   R@1,R@3
                 	.ENDM
                 
                 	.MACRO __EORWRR
                 	EOR  R@0,R@2
                 	EOR  R@1,R@3
                 	.ENDM
                 
                 	.MACRO __GETWRS
                 	LDD  R@0,Y+@2
                 	LDD  R@1,Y+@2+1
                 	.ENDM
                 
                 	.MACRO __PUTBSR
                 	STD  Y+@1,R@0
                 	.ENDM
                 
                 	.MACRO __PUTWSR
                 	STD  Y+@2,R@0
                 	STD  Y+@2+1,R@1
                 	.ENDM
                 
                 	.MACRO __MOVEWRR
                 	MOV  R@0,R@2
                 	MOV  R@1,R@3
                 	.ENDM
                 
                 	.MACRO __INWR
                 	IN   R@0,@2
                 	IN   R@1,@2+1
                 	.ENDM
                 
                 	.MACRO __OUTWR
                 	OUT  @2+1,R@1
                 	OUT  @2,R@0
                 	.ENDM
                 
                 	.MACRO __CALL1MN
                 	LDS  R30,@0+(@1)
                 	LDS  R31,@0+(@1)+1
                 	ICALL
                 	.ENDM
                 
                 	.MACRO __CALL1FN
                 	LDI  R30,LOW(2*@0+(@1))
                 	LDI  R31,HIGH(2*@0+(@1))
                 	CALL __GETW1PF
                 	ICALL
                 	.ENDM
                 
                 	.MACRO __CALL2EN
                 	LDI  R26,LOW(@0+(@1))
                 	LDI  R27,HIGH(@0+(@1))
                 	CALL __EEPROMRDW
                 	ICALL
                 	.ENDM
                 
                 	.MACRO __GETW1STACK
                 	IN   R26,SPL
                 	IN   R27,SPH
                 	ADIW R26,@0+1
                 	LD   R30,X+
                 	LD   R31,X
                 	.ENDM
                 
                 	.MACRO __GETD1STACK
                 	IN   R26,SPL
                 	IN   R27,SPH
                 	ADIW R26,@0+1
                 	LD   R30,X+
                 	LD   R31,X+
                 	LD   R22,X
                 	.ENDM
                 
                 	.MACRO __NBST
                 	BST  R@0,@1
                 	IN   R30,SREG
                 	LDI  R31,0x40
                 	EOR  R30,R31
                 	OUT  SREG,R30
                 	.ENDM
                 
                 
                 	.MACRO __PUTB1SN
                 	LDD  R26,Y+@0
                 	LDD  R27,Y+@0+1
                 	SUBI R26,LOW(-@1)
                 	SBCI R27,HIGH(-@1)
                 	ST   X,R30
                 	.ENDM
                 
                 	.MACRO __PUTW1SN
                 	LDD  R26,Y+@0
                 	LDD  R27,Y+@0+1
                 	SUBI R26,LOW(-@1)
                 	SBCI R27,HIGH(-@1)
                 	ST   X+,R30
                 	ST   X,R31
                 	.ENDM
                 
                 	.MACRO __PUTD1SN
                 	LDD  R26,Y+@0
                 	LDD  R27,Y+@0+1
                 	SUBI R26,LOW(-@1)
                 	SBCI R27,HIGH(-@1)
                 	CALL __PUTDP1
                 	.ENDM
                 
                 	.MACRO __PUTB1SNS
                 	LDD  R26,Y+@0
                 	LDD  R27,Y+@0+1
                 	ADIW R26,@1
                 	ST   X,R30
                 	.ENDM
                 
                 	.MACRO __PUTW1SNS
                 	LDD  R26,Y+@0
                 	LDD  R27,Y+@0+1
                 	ADIW R26,@1
                 	ST   X+,R30
                 	ST   X,R31
                 	.ENDM
                 
                 	.MACRO __PUTD1SNS
                 	LDD  R26,Y+@0
                 	LDD  R27,Y+@0+1
                 	ADIW R26,@1
                 	CALL __PUTDP1
                 	.ENDM
                 
                 	.MACRO __PUTB1PMN
                 	LDS  R26,@0
                 	LDS  R27,@0+1
                 	SUBI R26,LOW(-@1)
                 	SBCI R27,HIGH(-@1)
                 	ST   X,R30
                 	.ENDM
                 
                 	.MACRO __PUTW1PMN
                 	LDS  R26,@0
                 	LDS  R27,@0+1
                 	SUBI R26,LOW(-@1)
                 	SBCI R27,HIGH(-@1)
                 	ST   X+,R30
                 	ST   X,R31
                 	.ENDM
                 
                 	.MACRO __PUTD1PMN
                 	LDS  R26,@0
                 	LDS  R27,@0+1
                 	SUBI R26,LOW(-@1)
                 	SBCI R27,HIGH(-@1)
                 	CALL __PUTDP1
                 	.ENDM
                 
                 	.MACRO __PUTB1PMNS
                 	LDS  R26,@0
                 	LDS  R27,@0+1
                 	ADIW R26,@1
                 	ST   X,R30
                 	.ENDM
                 
                 	.MACRO __PUTW1PMNS
                 	LDS  R26,@0
                 	LDS  R27,@0+1
                 	ADIW R26,@1
                 	ST   X+,R30
                 	ST   X,R31
                 	.ENDM
                 
                 	.MACRO __PUTD1PMNS
                 	LDS  R26,@0
                 	LDS  R27,@0+1
                 	ADIW R26,@1
                 	CALL __PUTDP1
                 	.ENDM
                 
                 	.MACRO __PUTB1RN
                 	MOVW R26,R@0
                 	SUBI R26,LOW(-@1)
                 	SBCI R27,HIGH(-@1)
                 	ST   X,R30
                 	.ENDM
                 
                 	.MACRO __PUTW1RN
                 	MOVW R26,R@0
                 	SUBI R26,LOW(-@1)
                 	SBCI R27,HIGH(-@1)
                 	ST   X+,R30
                 	ST   X,R31
                 	.ENDM
                 
                 	.MACRO __PUTD1RN
                 	MOVW R26,R@0
                 	SUBI R26,LOW(-@1)
                 	SBCI R27,HIGH(-@1)
                 	CALL __PUTDP1
                 	.ENDM
                 
                 	.MACRO __PUTB1RNS
                 	MOVW R26,R@0
                 	ADIW R26,@1
                 	ST   X,R30
                 	.ENDM
                 
                 	.MACRO __PUTW1RNS
                 	MOVW R26,R@0
                 	ADIW R26,@1
                 	ST   X+,R30
                 	ST   X,R31
                 	.ENDM
                 
                 	.MACRO __PUTD1RNS
                 	MOVW R26,R@0
                 	ADIW R26,@1
                 	CALL __PUTDP1
                 	.ENDM
                 
                 	.MACRO __PUTB1RON
                 	MOV  R26,R@0
                 	MOV  R27,R@1
                 	SUBI R26,LOW(-@2)
                 	SBCI R27,HIGH(-@2)
                 	ST   X,R30
                 	.ENDM
                 
                 	.MACRO __PUTW1RON
                 	MOV  R26,R@0
                 	MOV  R27,R@1
                 	SUBI R26,LOW(-@2)
                 	SBCI R27,HIGH(-@2)
                 	ST   X+,R30
                 	ST   X,R31
                 	.ENDM
                 
                 	.MACRO __PUTD1RON
                 	MOV  R26,R@0
                 	MOV  R27,R@1
                 	SUBI R26,LOW(-@2)
                 	SBCI R27,HIGH(-@2)
                 	CALL __PUTDP1
                 	.ENDM
                 
                 	.MACRO __PUTB1RONS
                 	MOV  R26,R@0
                 	MOV  R27,R@1
                 	ADIW R26,@2
                 	ST   X,R30
                 	.ENDM
                 
                 	.MACRO __PUTW1RONS
                 	MOV  R26,R@0
                 	MOV  R27,R@1
                 	ADIW R26,@2
                 	ST   X+,R30
                 	ST   X,R31
                 	.ENDM
                 
                 	.MACRO __PUTD1RONS
                 	MOV  R26,R@0
                 	MOV  R27,R@1
                 	ADIW R26,@2
                 	CALL __PUTDP1
                 	.ENDM
                 
                 
                 	.MACRO __GETB1SX
                 	MOVW R30,R28
                 	SUBI R30,LOW(-@0)
                 	SBCI R31,HIGH(-@0)
                 	LD   R30,Z
                 	.ENDM
                 
                 	.MACRO __GETB1HSX
                 	MOVW R30,R28
                 	SUBI R30,LOW(-@0)
                 	SBCI R31,HIGH(-@0)
                 	LD   R31,Z
                 	.ENDM
                 
                 	.MACRO __GETW1SX
                 	MOVW R30,R28
                 	SUBI R30,LOW(-@0)
                 	SBCI R31,HIGH(-@0)
                 	LD   R0,Z+
                 	LD   R31,Z
                 	MOV  R30,R0
                 	.ENDM
                 
                 	.MACRO __GETD1SX
                 	MOVW R30,R28
                 	SUBI R30,LOW(-@0)
                 	SBCI R31,HIGH(-@0)
                 	LD   R0,Z+
                 	LD   R1,Z+
                 	LD   R22,Z+
                 	LD   R23,Z
                 	MOVW R30,R0
                 	.ENDM
                 
                 	.MACRO __GETB2SX
                 	MOVW R26,R28
                 	SUBI R26,LOW(-@0)
                 	SBCI R27,HIGH(-@0)
                 	LD   R26,X
                 	.ENDM
                 
                 	.MACRO __GETW2SX
                 	MOVW R26,R28
                 	SUBI R26,LOW(-@0)
                 	SBCI R27,HIGH(-@0)
                 	LD   R0,X+
                 	LD   R27,X
                 	MOV  R26,R0
                 	.ENDM
                 
                 	.MACRO __GETD2SX
                 	MOVW R26,R28
                 	SUBI R26,LOW(-@0)
                 	SBCI R27,HIGH(-@0)
                 	LD   R0,X+
                 	LD   R1,X+
                 	LD   R24,X+
                 	LD   R25,X
                 	MOVW R26,R0
                 	.ENDM
                 
                 	.MACRO __GETBRSX
                 	MOVW R30,R28
                 	SUBI R30,LOW(-@1)
                 	SBCI R31,HIGH(-@1)
                 	LD   R@0,Z
                 	.ENDM
                 
                 	.MACRO __GETWRSX
                 	MOVW R30,R28
                 	SUBI R30,LOW(-@2)
                 	SBCI R31,HIGH(-@2)
                 	LD   R@0,Z+
                 	LD   R@1,Z
                 	.ENDM
                 
                 	.MACRO __GETBRSX2
                 	MOVW R26,R28
                 	SUBI R26,LOW(-@1)
                 	SBCI R27,HIGH(-@1)
                 	LD   R@0,X
                 	.ENDM
                 
                 	.MACRO __GETWRSX2
                 	MOVW R26,R28
                 	SUBI R26,LOW(-@2)
                 	SBCI R27,HIGH(-@2)
                 	LD   R@0,X+
                 	LD   R@1,X
                 	.ENDM
                 
                 	.MACRO __LSLW8SX
                 	MOVW R30,R28
                 	SUBI R30,LOW(-@0)
                 	SBCI R31,HIGH(-@0)
                 	LD   R31,Z
                 	CLR  R30
                 	.ENDM
                 
                 	.MACRO __PUTB1SX
                 	MOVW R26,R28
                 	SUBI R26,LOW(-@0)
                 	SBCI R27,HIGH(-@0)
                 	ST   X,R30
                 	.ENDM
                 
                 	.MACRO __PUTW1SX
                 	MOVW R26,R28
                 	SUBI R26,LOW(-@0)
                 	SBCI R27,HIGH(-@0)
                 	ST   X+,R30
                 	ST   X,R31
                 	.ENDM
                 
                 	.MACRO __PUTD1SX
                 	MOVW R26,R28
                 	SUBI R26,LOW(-@0)
                 	SBCI R27,HIGH(-@0)
                 	ST   X+,R30
                 	ST   X+,R31
                 	ST   X+,R22
                 	ST   X,R23
                 	.ENDM
                 
                 	.MACRO __CLRW1SX
                 	MOVW R26,R28
                 	SUBI R26,LOW(-@0)
                 	SBCI R27,HIGH(-@0)
                 	ST   X+,R30
                 	ST   X,R30
                 	.ENDM
                 
                 	.MACRO __CLRD1SX
                 	MOVW R26,R28
                 	SUBI R26,LOW(-@0)
                 	SBCI R27,HIGH(-@0)
                 	ST   X+,R30
                 	ST   X+,R30
                 	ST   X+,R30
                 	ST   X,R30
                 	.ENDM
                 
                 	.MACRO __PUTB2SX
                 	MOVW R30,R28
                 	SUBI R30,LOW(-@0)
                 	SBCI R31,HIGH(-@0)
                 	ST   Z,R26
                 	.ENDM
                 
                 	.MACRO __PUTW2SX
                 	MOVW R30,R28
                 	SUBI R30,LOW(-@0)
                 	SBCI R31,HIGH(-@0)
                 	ST   Z+,R26
                 	ST   Z,R27
                 	.ENDM
                 
                 	.MACRO __PUTD2SX
                 	MOVW R30,R28
                 	SUBI R30,LOW(-@0)
                 	SBCI R31,HIGH(-@0)
                 	ST   Z+,R26
                 	ST   Z+,R27
                 	ST   Z+,R24
                 	ST   Z,R25
                 	.ENDM
                 
                 	.MACRO __PUTBSRX
                 	MOVW R30,R28
                 	SUBI R30,LOW(-@1)
                 	SBCI R31,HIGH(-@1)
                 	ST   Z,R@0
                 	.ENDM
                 
                 	.MACRO __PUTWSRX
                 	MOVW R30,R28
                 	SUBI R30,LOW(-@2)
                 	SBCI R31,HIGH(-@2)
                 	ST   Z+,R@0
                 	ST   Z,R@1
                 	.ENDM
                 
                 	.MACRO __PUTB1SNX
                 	MOVW R26,R28
                 	SUBI R26,LOW(-@0)
                 	SBCI R27,HIGH(-@0)
                 	LD   R0,X+
                 	LD   R27,X
                 	MOV  R26,R0
                 	SUBI R26,LOW(-@1)
                 	SBCI R27,HIGH(-@1)
                 	ST   X,R30
                 	.ENDM
                 
                 	.MACRO __PUTW1SNX
                 	MOVW R26,R28
                 	SUBI R26,LOW(-@0)
                 	SBCI R27,HIGH(-@0)
                 	LD   R0,X+
                 	LD   R27,X
                 	MOV  R26,R0
                 	SUBI R26,LOW(-@1)
                 	SBCI R27,HIGH(-@1)
                 	ST   X+,R30
                 	ST   X,R31
                 	.ENDM
                 
                 	.MACRO __PUTD1SNX
                 	MOVW R26,R28
                 	SUBI R26,LOW(-@0)
                 	SBCI R27,HIGH(-@0)
                 	LD   R0,X+
                 	LD   R27,X
                 	MOV  R26,R0
                 	SUBI R26,LOW(-@1)
                 	SBCI R27,HIGH(-@1)
                 	ST   X+,R30
                 	ST   X+,R31
                 	ST   X+,R22
                 	ST   X,R23
                 	.ENDM
                 
                 	.MACRO __MULBRR
                 	MULS R@0,R@1
                 	MOVW R30,R0
                 	.ENDM
                 
                 	.MACRO __MULBRRU
                 	MUL  R@0,R@1
                 	MOVW R30,R0
                 	.ENDM
                 
                 	.MACRO __MULBRR0
                 	MULS R@0,R@1
                 	.ENDM
                 
                 	.MACRO __MULBRRU0
                 	MUL  R@0,R@1
                 	.ENDM
                 
                 	.MACRO __MULBNWRU
                 	LDI  R26,@2
                 	MUL  R26,R@0
                 	MOVW R30,R0
                 	MUL  R26,R@1
                 	ADD  R31,R0
                 	.ENDM
                 
                 ;NAME DEFINITIONS FOR GLOBAL VARIABLES ALLOCATED TO REGISTERS
                 	.DEF _TCC0_CTRLA_temp=R3
                 	.DEF _adca_offset=R4
                 	.DEF _sampling_state=R2
                 	.DEF _dma_1st_int=R7
                 	.DEF _dac_x_ptr=R6
                 	.DEF _dac_x_port_ptr0=R9
                 	.DEF _dac_x_port_ptr1=R8
                 	.DEF _dac_y_ptr=R11
                 	.DEF _dac_y_max=R10
                 	.DEF _key_col_pos_temp=R13
                 	.DEF _key_col_pos=R12
                 
                 ;GPIO0-GPIO15 INITIALIZATION VALUES
                 	.EQU __GPIO0_INIT=0x00
                 	.EQU __GPIO1_INIT=0x00
                 	.EQU __GPIO2_INIT=0x00
                 	.EQU __GPIO3_INIT=0x00
                 	.EQU __GPIO4_INIT=0x00
                 	.EQU __GPIO5_INIT=0x00
                 	.EQU __GPIO6_INIT=0x00
                 	.EQU __GPIO7_INIT=0x00
                 	.EQU __GPIO8_INIT=0x00
                 	.EQU __GPIO9_INIT=0x00
                 	.EQU __GPIO10_INIT=0x00
                 	.EQU __GPIO11_INIT=0x00
                 	.EQU __GPIO12_INIT=0x00
                 	.EQU __GPIO13_INIT=0x00
                 	.EQU __GPIO14_INIT=0x00
                 	.EQU __GPIO15_INIT=0x00
                 
                 ;GLOBAL REGISTER VARIABLES INITIALIZATION VALUES
                 	.EQU __R2_INIT=0x00
                 	.EQU __R3_INIT=0x00
                 	.EQU __R4_INIT=0x00
                 	.EQU __R5_INIT=0x00
                 	.EQU __R6_INIT=0x00
                 	.EQU __R7_INIT=0x00
                 	.EQU __R8_INIT=0x00
                 	.EQU __R9_INIT=0x00
                 	.EQU __R10_INIT=0x00
                 	.EQU __R11_INIT=0x01
                 	.EQU __R12_INIT=0x00
                 	.EQU __R13_INIT=0x00
                 	.EQU __R14_INIT=0x00
                 
                 	.CSEG
                 	.ORG 0x00
                 
                 ;START OF CODE MARKER
                 __START_OF_CODE:
                 
                 ;INTERRUPT VECTORS
000000 940c 09d3 	JMP  __RESET
000002 940c 0000 	JMP  0x00
000004 940c 0000 	JMP  0x00
000006 940c 0000 	JMP  0x00
000008 940c 0000 	JMP  0x00
00000a 940c 0000 	JMP  0x00
00000c 940c 0e34 	JMP  _dma_ch0_isr
00000e 940c 0e20 	JMP  _dma_ch1_isr
000010 940c 0000 	JMP  0x00
000012 940c 0000 	JMP  0x00
000014 940c 0000 	JMP  0x00
000016 940c 0000 	JMP  0x00
000018 940c 0000 	JMP  0x00
00001a 940c 0000 	JMP  0x00
00001c 940c 0000 	JMP  0x00
00001e 940c 0000 	JMP  0x00
000020 940c 0000 	JMP  0x00
000022 940c 0000 	JMP  0x00
000024 940c 0000 	JMP  0x00
000026 940c 0000 	JMP  0x00
000028 940c 0000 	JMP  0x00
00002a 940c 0000 	JMP  0x00
00002c 940c 0000 	JMP  0x00
00002e 940c 0000 	JMP  0x00
000030 940c 0000 	JMP  0x00
000032 940c 0000 	JMP  0x00
000034 940c 0000 	JMP  0x00
000036 940c 0000 	JMP  0x00
000038 940c 0000 	JMP  0x00
00003a 940c 0000 	JMP  0x00
00003c 940c 0000 	JMP  0x00
00003e 940c 0000 	JMP  0x00
000040 940c 0000 	JMP  0x00
000042 940c 0000 	JMP  0x00
000044 940c 0000 	JMP  0x00
000046 940c 0000 	JMP  0x00
000048 940c 0000 	JMP  0x00
00004a 940c 0000 	JMP  0x00
00004c 940c 0000 	JMP  0x00
00004e 940c 0000 	JMP  0x00
000050 940c 0000 	JMP  0x00
000052 940c 0000 	JMP  0x00
000054 940c 0000 	JMP  0x00
000056 940c 0000 	JMP  0x00
000058 940c 0000 	JMP  0x00
00005a 940c 0000 	JMP  0x00
00005c 940c 0000 	JMP  0x00
00005e 940c 0f16 	JMP  _tce0_overflow_isr
000060 940c 0000 	JMP  0x00
000062 940c 0000 	JMP  0x00
000064 940c 0000 	JMP  0x00
000066 940c 0000 	JMP  0x00
000068 940c 0000 	JMP  0x00
00006a 940c 0f3a 	JMP  _tce1_overflow_isr
00006c 940c 0000 	JMP  0x00
00006e 940c 0000 	JMP  0x00
000070 940c 0000 	JMP  0x00
000072 940c 0000 	JMP  0x00
000074 940c 0000 	JMP  0x00
000076 940c 0000 	JMP  0x00
000078 940c 0000 	JMP  0x00
00007a 940c 0000 	JMP  0x00
00007c 940c 0000 	JMP  0x00
00007e 940c 0000 	JMP  0x00
000080 940c 1474 	JMP  _portd_int0_isr
000082 940c 0000 	JMP  0x00
000084 940c 0000 	JMP  0x00
000086 940c 0000 	JMP  0x00
000088 940c 0000 	JMP  0x00
00008a 940c 0000 	JMP  0x00
00008c 940c 0000 	JMP  0x00
00008e 940c 0000 	JMP  0x00
000090 940c 0000 	JMP  0x00
000092 940c 0000 	JMP  0x00
000094 940c 0000 	JMP  0x00
000096 940c 0000 	JMP  0x00
000098 940c 0000 	JMP  0x00
00009a 940c 0dfe 	JMP  _tcd0_overflow_isr
00009c 940c 0000 	JMP  0x00
00009e 940c 0000 	JMP  0x00
0000a0 940c 0000 	JMP  0x00
0000a2 940c 0000 	JMP  0x00
0000a4 940c 0000 	JMP  0x00
0000a6 940c 0000 	JMP  0x00
0000a8 940c 0000 	JMP  0x00
0000aa 940c 0000 	JMP  0x00
0000ac 940c 0000 	JMP  0x00
0000ae 940c 0000 	JMP  0x00
0000b0 940c 0000 	JMP  0x00
0000b2 940c 0000 	JMP  0x00
0000b4 940c 0000 	JMP  0x00
0000b6 940c 0000 	JMP  0x00
0000b8 940c 0000 	JMP  0x00
0000ba 940c 0000 	JMP  0x00
0000bc 940c 0000 	JMP  0x00
0000be 940c 0000 	JMP  0x00
0000c0 940c 0000 	JMP  0x00
0000c2 940c 0000 	JMP  0x00
0000c4 940c 0000 	JMP  0x00
0000c6 940c 0000 	JMP  0x00
0000c8 940c 0000 	JMP  0x00
0000ca 940c 0000 	JMP  0x00
0000cc 940c 0000 	JMP  0x00
0000ce 940c 0000 	JMP  0x00
0000d0 940c 0000 	JMP  0x00
0000d2 940c 0000 	JMP  0x00
0000d4 940c 0000 	JMP  0x00
0000d6 940c 0000 	JMP  0x00
0000d8 940c 1494 	JMP  _tcf0_overflow_isr
0000da 940c 0000 	JMP  0x00
0000dc 940c 0000 	JMP  0x00
0000de 940c 0000 	JMP  0x00
0000e0 940c 0000 	JMP  0x00
0000e2 940c 0000 	JMP  0x00
0000e4 940c 0000 	JMP  0x00
0000e6 940c 0000 	JMP  0x00
0000e8 940c 0000 	JMP  0x00
0000ea 940c 0000 	JMP  0x00
0000ec 940c 0000 	JMP  0x00
0000ee 940c 0000 	JMP  0x00
0000f0 940c 0000 	JMP  0x00
0000f2 940c 0000 	JMP  0x00
0000f4 940c 0000 	JMP  0x00
0000f6 940c 0000 	JMP  0x00
0000f8 940c 0000 	JMP  0x00
                 
                 _key_pos_to_key:
0000fa 0201
0000fb 0a03
0000fc 0504
0000fd 0b06      	.DB  0x1,0x2,0x3,0xA,0x4,0x5,0x6,0xB
0000fe 0807
0000ff 0c09
000100 000d
000101 0f0e      	.DB  0x7,0x8,0x9,0xC,0xD,0x0,0xE,0xF
                 _units:
000102 0000
000103 0000
000104 8480
000105 001e      	.DB  0x0,0x0,0x0,0x0,0x80,0x84,0x1E,0x0
000106 5675
000107 0020
000108 6a07
000109 0011      	.DB  0x75,0x56,0x20,0x0,0x7,LOW(_abs_fft_uV),HIGH(_abs_fft_uV),0x0
00010a 0000
00010b d000
00010c 0007
00010d 6d00      	.DB  0x0,0x0,0x0,0xD0,0x7,0x0,0x0,0x6D
00010e 2056
00010f 0400
000110 117d
000111 ff87      	.DB  0x56,0x20,0x0,0x4,LOW(_abs_fft_mV),HIGH(_abs_fft_mV),0x87,0xFF
000112 ffff
000113 fffa
000114 ffff
000115 4264      	.DB  0xFF,0xFF,0xFA,0xFF,0xFF,0xFF,0x64,0x42
000116 0020
000117 9004
000118 a511
000119 ffff      	.DB  0x20,0x0,0x4,LOW(_abs_fft_dB),HIGH(_abs_fft_dB),0xA5,0xFF,0xFF
00011a 18ff
00011b 0000
00011c 6400
00011d 6d42      	.DB  0xFF,0x18,0x0,0x0,0x0,0x64,0x42,0x6D
00011e 0400
00011f 11a7      	.DB  0x0,0x4,LOW(_abs_fft_dBm),HIGH(_abs_fft_dBm)
                 _menu_state_data:
000120 0ff9
000121 0909
000122 0909
000123 0909      	.DB  LOW(_menu_display_calib),HIGH(_menu_display_calib),0x9,0x9,0x9,0x9,0x9,0x9
000124 0909
000125 0909
000126 0109
000127 0909      	.DB  0x9,0x9,0x9,0x9,0x9,0x1,0x9,0x9
000128 0909
000129 1095
00012a 0909
00012b 0909      	.DB  0x9,0x9,LOW(_menu_display_show_freq),HIGH(_menu_display_show_freq),0x9,0x9,0x9,0x9
00012c 0909
00012d 0409
00012e 0209
00012f 0009      	.DB  0x9,0x9,0x9,0x4,0x9,0x2,0x9,0x0
000130 0909
000131 0905
000132 11bb
000133 0909      	.DB  0x9,0x9,0x5,0x9,LOW(_menu_display_show_div),HIGH(_menu_display_show_div),0x9,0x9
000134 0909
000135 0909
000136 0109
000137 0309      	.DB  0x9,0x9,0x9,0x9,0x9,0x1,0x9,0x3
000138 0009
000139 0909
00013a 0906
00013b 12bb      	.DB  0x9,0x0,0x9,0x9,0x6,0x9,LOW(_menu_display_show_min),HIGH(_menu_display_show_min)
00013c 0909
00013d 0909
00013e 0909
00013f 0209      	.DB  0x9,0x9,0x9,0x9,0x9,0x9,0x9,0x2
000140 0409
000141 0009
000142 0909
000143 0907      	.DB  0x9,0x4,0x9,0x0,0x9,0x9,0x7,0x9
000144 13c6
000145 0909
000146 0909
000147 0909      	.DB  LOW(_menu_display_show_gain),HIGH(_menu_display_show_gain),0x9,0x9,0x9,0x9,0x9,0x9
000148 0309
000149 0109
00014a 0009
00014b 0909      	.DB  0x9,0x3,0x9,0x1,0x9,0x0,0x9,0x9
00014c 0908
00014d 10ff
00014e 0505
00014f 0505      	.DB  0x8,0x9,LOW(_menu_display_set_freq),HIGH(_menu_display_set_freq),0x5,0x5,0x5,0x5
000150 0505
000151 0505
000152 0505
000153 0905      	.DB  0x5,0x5,0x5,0x5,0x5,0x5,0x5,0x9
000154 0109
000155 0901
000156 1248
000157 0606      	.DB  0x9,0x1,0x1,0x9,LOW(_menu_display_set_div),HIGH(_menu_display_set_div),0x6,0x6
000158 0606
000159 0606
00015a 0606
00015b 0606      	.DB  0x6,0x6,0x6,0x6,0x6,0x6,0x6,0x6
00015c 0906
00015d 0209
00015e 0902
00015f 138d      	.DB  0x6,0x9,0x9,0x2,0x2,0x9,LOW(_menu_display_set_min),HIGH(_menu_display_set_min)
000160 0707
000161 0707
000162 0707
000163 0707      	.DB  0x7,0x7,0x7,0x7,0x7,0x7,0x7,0x7
000164 0707
000165 0907
000166 0307
000167 0703      	.DB  0x7,0x7,0x7,0x9,0x7,0x3,0x3,0x7
000168 1400
000169 0909
00016a 0909
00016b 0909      	.DB  LOW(_menu_display_set_gain),HIGH(_menu_display_set_gain),0x9,0x9,0x9,0x9,0x9,0x9
00016c 0809
00016d 0809
00016e 0909
00016f 0409      	.DB  0x9,0x8,0x9,0x8,0x9,0x9,0x9,0x4
000170 0904      	.DB  0x4,0x9
                 _W:
000171 0000
000172 3f80
000173 0000
000174 0000      	.DB  0x0,0x0,0x80,0x3F,0x0,0x0,0x0,0x0
000175 fb11
000176 3f7f
000177 0e90
000178 3c49      	.DB  0x11,0xFB,0x7F,0x3F,0x90,0xE,0x49,0x3C
000179 ec43
00017a 3f7f
00017b 0ab0
00017c 3cc9      	.DB  0x43,0xEC,0x7F,0x3F,0xB0,0xA,0xC9,0x3C
00017d d397
00017e 3f7f
00017f c32c
000180 3d16      	.DB  0x97,0xD3,0x7F,0x3F,0x2C,0xC3,0x16,0x3D
000181 b10f
000182 3f7f
000183 fb30
000184 3d48      	.DB  0xF,0xB1,0x7F,0x3F,0x30,0xFB,0x48,0x3D
000185 84ab
000186 3f7f
000187 2b74
000188 3d7b      	.DB  0xAB,0x84,0x7F,0x3F,0x74,0x2B,0x7B,0x3D
000189 4e6d
00018a 3f7f
00018b a905
00018c 3d96      	.DB  0x6D,0x4E,0x7F,0x3F,0x5,0xA9,0x96,0x3D
00018d 0e58
00018e 3f7f
00018f b680
000190 3daf      	.DB  0x58,0xE,0x7F,0x3F,0x80,0xB6,0xAF,0x3D
000191 c46d
000192 3f7e
000193 bd36
000194 3dc8      	.DB  0x6D,0xC4,0x7E,0x3F,0x36,0xBD,0xC8,0x3D
000195 70b0
000196 3f7e
000197 bc2e
000198 3de1      	.DB  0xB0,0x70,0x7E,0x3F,0x2E,0xBC,0xE1,0x3D
000199 1324
00019a 3f7e
00019b b273
00019c 3dfa      	.DB  0x24,0x13,0x7E,0x3F,0x73,0xB2,0xFA,0x3D
00019d abcc
00019e 3f7d
00019f cf86
0001a0 3e09      	.DB  0xCC,0xAB,0x7D,0x3F,0x86,0xCF,0x9,0x3E
0001a1 3aac
0001a2 3f7d
0001a3 4083
0001a4 3e16      	.DB  0xAC,0x3A,0x7D,0x3F,0x83,0x40,0x16,0x3E
0001a5 bfc9
0001a6 3f7c
0001a7 abb6
0001a8 3e22      	.DB  0xC9,0xBF,0x7C,0x3F,0xB6,0xAB,0x22,0x3E
0001a9 3b28
0001aa 3f7c
0001ab 10a2
0001ac 3e2f      	.DB  0x28,0x3B,0x7C,0x3F,0xA2,0x10,0x2F,0x3E
0001ad accd
0001ae 3f7b
0001af 6ecf
0001b0 3e3b      	.DB  0xCD,0xAC,0x7B,0x3F,0xCF,0x6E,0x3B,0x3E
0001b1 14be
0001b2 3f7b
0001b3 c5c2
0001b4 3e47      	.DB  0xBE,0x14,0x7B,0x3F,0xC2,0xC5,0x47,0x3E
0001b5 7302
0001b6 3f7a
0001b7 1501
0001b8 3e54      	.DB  0x2,0x73,0x7A,0x3F,0x1,0x15,0x54,0x3E
0001b9 c79d
0001ba 3f79
0001bb 5c13
0001bc 3e60      	.DB  0x9D,0xC7,0x79,0x3F,0x13,0x5C,0x60,0x3E
0001bd 1298
0001be 3f79
0001bf 9a7f
0001c0 3e6c      	.DB  0x98,0x12,0x79,0x3F,0x7F,0x9A,0x6C,0x3E
0001c1 53f8
0001c2 3f78
0001c3 cfcc
0001c4 3e78      	.DB  0xF8,0x53,0x78,0x3F,0xCC,0xCF,0x78,0x3E
0001c5 8bc5
0001c6 3f77
0001c7 7dc0
0001c8 3e82      	.DB  0xC5,0x8B,0x77,0x3F,0xC0,0x7D,0x82,0x3E
0001c9 ba07
0001ca 3f76
0001cb 8e93
0001cc 3e88      	.DB  0x7,0xBA,0x76,0x3F,0x93,0x8E,0x88,0x3E
0001cd dec6
0001ce 3f75
0001cf 9a22
0001d0 3e8e      	.DB  0xC6,0xDE,0x75,0x3F,0x22,0x9A,0x8E,0x3E
0001d1 fa0b
0001d2 3f74
0001d3 a031
0001d4 3e94      	.DB  0xB,0xFA,0x74,0x3F,0x31,0xA0,0x94,0x3E
0001d5 0bdd
0001d6 3f74
0001d7 a086
0001d8 3e9a      	.DB  0xDD,0xB,0x74,0x3F,0x86,0xA0,0x9A,0x3E
0001d9 1447
0001da 3f73
0001db 9ae5
0001dc 3ea0      	.DB  0x47,0x14,0x73,0x3F,0xE5,0x9A,0xA0,0x3E
0001dd 1352
0001de 3f72
0001df 8f12
0001e0 3ea6      	.DB  0x52,0x13,0x72,0x3F,0x12,0x8F,0xA6,0x3E
0001e1 0908
0001e2 3f71
0001e3 7cd4
0001e4 3eac      	.DB  0x8,0x9,0x71,0x3F,0xD4,0x7C,0xAC,0x3E
0001e5 f573
0001e6 3f6f
0001e7 63ef
0001e8 3eb2      	.DB  0x73,0xF5,0x6F,0x3F,0xEF,0x63,0xB2,0x3E
0001e9 d89e
0001ea 3f6e
0001eb 442a
0001ec 3eb8      	.DB  0x9E,0xD8,0x6E,0x3F,0x2A,0x44,0xB8,0x3E
0001ed b293
0001ee 3f6d
0001ef 1d4a
0001f0 3ebe      	.DB  0x93,0xB2,0x6D,0x3F,0x4A,0x1D,0xBE,0x3E
0001f1 835e
0001f2 3f6c
0001f3 ef15
0001f4 3ec3      	.DB  0x5E,0x83,0x6C,0x3F,0x15,0xEF,0xC3,0x3E
0001f5 4b0c
0001f6 3f6b
0001f7 b953
0001f8 3ec9      	.DB  0xC,0x4B,0x6B,0x3F,0x53,0xB9,0xC9,0x3E
0001f9 09a7
0001fa 3f6a
0001fb 7bca
0001fc 3ecf      	.DB  0xA7,0x9,0x6A,0x3F,0xCA,0x7B,0xCF,0x3E
0001fd bf3c
0001fe 3f68
0001ff 3641
000200 3ed5      	.DB  0x3C,0xBF,0x68,0x3F,0x41,0x36,0xD5,0x3E
000201 6bd8
000202 3f67
000203 e880
000204 3eda      	.DB  0xD8,0x6B,0x67,0x3F,0x80,0xE8,0xDA,0x3E
000205 0f88
000206 3f66
000207 924f
000208 3ee0      	.DB  0x88,0xF,0x66,0x3F,0x4F,0x92,0xE0,0x3E
000209 aa59
00020a 3f64
00020b 3375
00020c 3ee6      	.DB  0x59,0xAA,0x64,0x3F,0x75,0x33,0xE6,0x3E
00020d 3c5a
00020e 3f63
00020f cbbb
000210 3eeb      	.DB  0x5A,0x3C,0x63,0x3F,0xBB,0xCB,0xEB,0x3E
000211 c598
000212 3f61
000213 5aea
000214 3ef1      	.DB  0x98,0xC5,0x61,0x3F,0xEA,0x5A,0xF1,0x3E
000215 4621
000216 3f60
000217 e0cb
000218 3ef6      	.DB  0x21,0x46,0x60,0x3F,0xCB,0xE0,0xF6,0x3E
000219 be05
00021a 3f5e
00021b 5d27
00021c 3efc      	.DB  0x5,0xBE,0x5E,0x3F,0x27,0x5D,0xFC,0x3E
00021d 2d53
00021e 3f5d
00021f e7e4
000220 3f00      	.DB  0x53,0x2D,0x5D,0x3F,0xE4,0xE7,0x0,0x3F
000221 941a
000222 3f5b
000223 9c3d
000224 3f03      	.DB  0x1A,0x94,0x5B,0x3F,0x3D,0x9C,0x3,0x3F
000225 f26a
000226 3f59
000227 4b82
000228 3f06      	.DB  0x6A,0xF2,0x59,0x3F,0x82,0x4B,0x6,0x3F
000229 4853
00022a 3f58
00022b f59b
00022c 3f08      	.DB  0x53,0x48,0x58,0x3F,0x9B,0xF5,0x8,0x3F
00022d 95e5
00022e 3f56
00022f 9a6b
000230 3f0b      	.DB  0xE5,0x95,0x56,0x3F,0x6B,0x9A,0xB,0x3F
000231 db31
000232 3f54
000233 39da
000234 3f0e      	.DB  0x31,0xDB,0x54,0x3F,0xDA,0x39,0xE,0x3F
000235 1849
000236 3f53
000237 d3cd
000238 3f10      	.DB  0x49,0x18,0x53,0x3F,0xCD,0xD3,0x10,0x3F
000239 4d3d
00023a 3f51
00023b 682a
00023c 3f13      	.DB  0x3D,0x4D,0x51,0x3F,0x2A,0x68,0x13,0x3F
00023d 7a1f
00023e 3f4f
00023f f6d9
000240 3f15      	.DB  0x1F,0x7A,0x4F,0x3F,0xD9,0xF6,0x15,0x3F
000241 9f02
000242 3f4d
000243 7fc0
000244 3f18      	.DB  0x2,0x9F,0x4D,0x3F,0xC0,0x7F,0x18,0x3F
000245 bbf8
000246 3f4b
000247 02c6
000248 3f1b      	.DB  0xF8,0xBB,0x4B,0x3F,0xC6,0x2,0x1B,0x3F
000249 d112
00024a 3f49
00024b 7fd1
00024c 3f1d      	.DB  0x12,0xD1,0x49,0x3F,0xD1,0x7F,0x1D,0x3F
00024d de65
00024e 3f47
00024f f6cb
000250 3f1f      	.DB  0x65,0xDE,0x47,0x3F,0xCB,0xF6,0x1F,0x3F
000251 e403
000252 3f45
000253 6799
000254 3f22      	.DB  0x3,0xE4,0x45,0x3F,0x99,0x67,0x22,0x3F
000255 e200
000256 3f43
000257 d225
000258 3f24      	.DB  0x0,0xE2,0x43,0x3F,0x25,0xD2,0x24,0x3F
000259 d870
00025a 3f41
00025b 3656
00025c 3f27      	.DB  0x70,0xD8,0x41,0x3F,0x56,0x36,0x27,0x3F
00025d c767
00025e 3f3f
00025f 9415
000260 3f29      	.DB  0x67,0xC7,0x3F,0x3F,0x15,0x94,0x29,0x3F
000261 aef9
000262 3f3d
000263 eb4a
000264 3f2b      	.DB  0xF9,0xAE,0x3D,0x3F,0x4A,0xEB,0x2B,0x3F
000265 8f3b
000266 3f3b
000267 3bde
000268 3f2e      	.DB  0x3B,0x8F,0x3B,0x3F,0xDE,0x3B,0x2E,0x3F
000269 6842
00026a 3f39
00026b 85bb
00026c 3f30      	.DB  0x42,0x68,0x39,0x3F,0xBB,0x85,0x30,0x3F
00026d 3a23
00026e 3f37
00026f c8c9
000270 3f32      	.DB  0x23,0x3A,0x37,0x3F,0xC9,0xC8,0x32,0x3F
000271 04f3
000272 3f35
000273 04f3
000274 3f35      	.DB  0xF3,0x4,0x35,0x3F,0xF3,0x4,0x35,0x3F
000275 c8c9
000276 3f32
000277 3a23
000278 3f37      	.DB  0xC9,0xC8,0x32,0x3F,0x23,0x3A,0x37,0x3F
000279 85bb
00027a 3f30
00027b 6842
00027c 3f39      	.DB  0xBB,0x85,0x30,0x3F,0x42,0x68,0x39,0x3F
00027d 3bde
00027e 3f2e
00027f 8f3b
000280 3f3b      	.DB  0xDE,0x3B,0x2E,0x3F,0x3B,0x8F,0x3B,0x3F
000281 eb4a
000282 3f2b
000283 aef9
000284 3f3d      	.DB  0x4A,0xEB,0x2B,0x3F,0xF9,0xAE,0x3D,0x3F
000285 9415
000286 3f29
000287 c767
000288 3f3f      	.DB  0x15,0x94,0x29,0x3F,0x67,0xC7,0x3F,0x3F
000289 3656
00028a 3f27
00028b d870
00028c 3f41      	.DB  0x56,0x36,0x27,0x3F,0x70,0xD8,0x41,0x3F
00028d d225
00028e 3f24
00028f e200
000290 3f43      	.DB  0x25,0xD2,0x24,0x3F,0x0,0xE2,0x43,0x3F
000291 6799
000292 3f22
000293 e403
000294 3f45      	.DB  0x99,0x67,0x22,0x3F,0x3,0xE4,0x45,0x3F
000295 f6cb
000296 3f1f
000297 de65
000298 3f47      	.DB  0xCB,0xF6,0x1F,0x3F,0x65,0xDE,0x47,0x3F
000299 7fd1
00029a 3f1d
00029b d112
00029c 3f49      	.DB  0xD1,0x7F,0x1D,0x3F,0x12,0xD1,0x49,0x3F
00029d 02c6
00029e 3f1b
00029f bbf8
0002a0 3f4b      	.DB  0xC6,0x2,0x1B,0x3F,0xF8,0xBB,0x4B,0x3F
0002a1 7fc0
0002a2 3f18
0002a3 9f02
0002a4 3f4d      	.DB  0xC0,0x7F,0x18,0x3F,0x2,0x9F,0x4D,0x3F
0002a5 f6d9
0002a6 3f15
0002a7 7a1f
0002a8 3f4f      	.DB  0xD9,0xF6,0x15,0x3F,0x1F,0x7A,0x4F,0x3F
0002a9 682a
0002aa 3f13
0002ab 4d3d
0002ac 3f51      	.DB  0x2A,0x68,0x13,0x3F,0x3D,0x4D,0x51,0x3F
0002ad d3cd
0002ae 3f10
0002af 1849
0002b0 3f53      	.DB  0xCD,0xD3,0x10,0x3F,0x49,0x18,0x53,0x3F
0002b1 39da
0002b2 3f0e
0002b3 db31
0002b4 3f54      	.DB  0xDA,0x39,0xE,0x3F,0x31,0xDB,0x54,0x3F
0002b5 9a6b
0002b6 3f0b
0002b7 95e5
0002b8 3f56      	.DB  0x6B,0x9A,0xB,0x3F,0xE5,0x95,0x56,0x3F
0002b9 f59b
0002ba 3f08
0002bb 4853
0002bc 3f58      	.DB  0x9B,0xF5,0x8,0x3F,0x53,0x48,0x58,0x3F
0002bd 4b82
0002be 3f06
0002bf f26a
0002c0 3f59      	.DB  0x82,0x4B,0x6,0x3F,0x6A,0xF2,0x59,0x3F
0002c1 9c3d
0002c2 3f03
0002c3 941a
0002c4 3f5b      	.DB  0x3D,0x9C,0x3,0x3F,0x1A,0x94,0x5B,0x3F
0002c5 e7e4
0002c6 3f00
0002c7 2d53
0002c8 3f5d      	.DB  0xE4,0xE7,0x0,0x3F,0x53,0x2D,0x5D,0x3F
0002c9 5d27
0002ca 3efc
0002cb be05
0002cc 3f5e      	.DB  0x27,0x5D,0xFC,0x3E,0x5,0xBE,0x5E,0x3F
0002cd e0cb
0002ce 3ef6
0002cf 4621
0002d0 3f60      	.DB  0xCB,0xE0,0xF6,0x3E,0x21,0x46,0x60,0x3F
0002d1 5aea
0002d2 3ef1
0002d3 c598
0002d4 3f61      	.DB  0xEA,0x5A,0xF1,0x3E,0x98,0xC5,0x61,0x3F
0002d5 cbbb
0002d6 3eeb
0002d7 3c5a
0002d8 3f63      	.DB  0xBB,0xCB,0xEB,0x3E,0x5A,0x3C,0x63,0x3F
0002d9 3375
0002da 3ee6
0002db aa59
0002dc 3f64      	.DB  0x75,0x33,0xE6,0x3E,0x59,0xAA,0x64,0x3F
0002dd 924f
0002de 3ee0
0002df 0f88
0002e0 3f66      	.DB  0x4F,0x92,0xE0,0x3E,0x88,0xF,0x66,0x3F
0002e1 e880
0002e2 3eda
0002e3 6bd8
0002e4 3f67      	.DB  0x80,0xE8,0xDA,0x3E,0xD8,0x6B,0x67,0x3F
0002e5 3641
0002e6 3ed5
0002e7 bf3c
0002e8 3f68      	.DB  0x41,0x36,0xD5,0x3E,0x3C,0xBF,0x68,0x3F
0002e9 7bca
0002ea 3ecf
0002eb 09a7
0002ec 3f6a      	.DB  0xCA,0x7B,0xCF,0x3E,0xA7,0x9,0x6A,0x3F
0002ed b953
0002ee 3ec9
0002ef 4b0c
0002f0 3f6b      	.DB  0x53,0xB9,0xC9,0x3E,0xC,0x4B,0x6B,0x3F
0002f1 ef15
0002f2 3ec3
0002f3 835e
0002f4 3f6c      	.DB  0x15,0xEF,0xC3,0x3E,0x5E,0x83,0x6C,0x3F
0002f5 1d4a
0002f6 3ebe
0002f7 b293
0002f8 3f6d      	.DB  0x4A,0x1D,0xBE,0x3E,0x93,0xB2,0x6D,0x3F
0002f9 442a
0002fa 3eb8
0002fb d89e
0002fc 3f6e      	.DB  0x2A,0x44,0xB8,0x3E,0x9E,0xD8,0x6E,0x3F
0002fd 63ef
0002fe 3eb2
0002ff f573
000300 3f6f      	.DB  0xEF,0x63,0xB2,0x3E,0x73,0xF5,0x6F,0x3F
000301 7cd4
000302 3eac
000303 0908
000304 3f71      	.DB  0xD4,0x7C,0xAC,0x3E,0x8,0x9,0x71,0x3F
000305 8f12
000306 3ea6
000307 1352
000308 3f72      	.DB  0x12,0x8F,0xA6,0x3E,0x52,0x13,0x72,0x3F
000309 9ae5
00030a 3ea0
00030b 1447
00030c 3f73      	.DB  0xE5,0x9A,0xA0,0x3E,0x47,0x14,0x73,0x3F
00030d a086
00030e 3e9a
00030f 0bdd
000310 3f74      	.DB  0x86,0xA0,0x9A,0x3E,0xDD,0xB,0x74,0x3F
000311 a031
000312 3e94
000313 fa0b
000314 3f74      	.DB  0x31,0xA0,0x94,0x3E,0xB,0xFA,0x74,0x3F
000315 9a22
000316 3e8e
000317 dec6
000318 3f75      	.DB  0x22,0x9A,0x8E,0x3E,0xC6,0xDE,0x75,0x3F
000319 8e93
00031a 3e88
00031b ba07
00031c 3f76      	.DB  0x93,0x8E,0x88,0x3E,0x7,0xBA,0x76,0x3F
00031d 7dc0
00031e 3e82
00031f 8bc5
000320 3f77      	.DB  0xC0,0x7D,0x82,0x3E,0xC5,0x8B,0x77,0x3F
000321 cfcc
000322 3e78
000323 53f8
000324 3f78      	.DB  0xCC,0xCF,0x78,0x3E,0xF8,0x53,0x78,0x3F
000325 9a7f
000326 3e6c
000327 1298
000328 3f79      	.DB  0x7F,0x9A,0x6C,0x3E,0x98,0x12,0x79,0x3F
000329 5c13
00032a 3e60
00032b c79d
00032c 3f79      	.DB  0x13,0x5C,0x60,0x3E,0x9D,0xC7,0x79,0x3F
00032d 1501
00032e 3e54
00032f 7302
000330 3f7a      	.DB  0x1,0x15,0x54,0x3E,0x2,0x73,0x7A,0x3F
000331 c5c2
000332 3e47
000333 14be
000334 3f7b      	.DB  0xC2,0xC5,0x47,0x3E,0xBE,0x14,0x7B,0x3F
000335 6ecf
000336 3e3b
000337 accd
000338 3f7b      	.DB  0xCF,0x6E,0x3B,0x3E,0xCD,0xAC,0x7B,0x3F
000339 10a2
00033a 3e2f
00033b 3b28
00033c 3f7c      	.DB  0xA2,0x10,0x2F,0x3E,0x28,0x3B,0x7C,0x3F
00033d abb6
00033e 3e22
00033f bfc9
000340 3f7c      	.DB  0xB6,0xAB,0x22,0x3E,0xC9,0xBF,0x7C,0x3F
000341 4083
000342 3e16
000343 3aac
000344 3f7d      	.DB  0x83,0x40,0x16,0x3E,0xAC,0x3A,0x7D,0x3F
000345 cf86
000346 3e09
000347 abcc
000348 3f7d      	.DB  0x86,0xCF,0x9,0x3E,0xCC,0xAB,0x7D,0x3F
000349 b273
00034a 3dfa
00034b 1324
00034c 3f7e      	.DB  0x73,0xB2,0xFA,0x3D,0x24,0x13,0x7E,0x3F
00034d bc2e
00034e 3de1
00034f 70b0
000350 3f7e      	.DB  0x2E,0xBC,0xE1,0x3D,0xB0,0x70,0x7E,0x3F
000351 bd36
000352 3dc8
000353 c46d
000354 3f7e      	.DB  0x36,0xBD,0xC8,0x3D,0x6D,0xC4,0x7E,0x3F
000355 b680
000356 3daf
000357 0e58
000358 3f7f      	.DB  0x80,0xB6,0xAF,0x3D,0x58,0xE,0x7F,0x3F
000359 a905
00035a 3d96
00035b 4e6d
00035c 3f7f      	.DB  0x5,0xA9,0x96,0x3D,0x6D,0x4E,0x7F,0x3F
00035d 2b74
00035e 3d7b
00035f 84ab
000360 3f7f      	.DB  0x74,0x2B,0x7B,0x3D,0xAB,0x84,0x7F,0x3F
000361 fb30
000362 3d48
000363 b10f
000364 3f7f      	.DB  0x30,0xFB,0x48,0x3D,0xF,0xB1,0x7F,0x3F
000365 c32c
000366 3d16
000367 d397
000368 3f7f      	.DB  0x2C,0xC3,0x16,0x3D,0x97,0xD3,0x7F,0x3F
000369 0ab0
00036a 3cc9
00036b ec43
00036c 3f7f      	.DB  0xB0,0xA,0xC9,0x3C,0x43,0xEC,0x7F,0x3F
00036d 0e90
00036e 3c49
00036f fb11
000370 3f7f      	.DB  0x90,0xE,0x49,0x3C,0x11,0xFB,0x7F,0x3F
000371 0000
000372 0000
000373 0000
000374 3f80      	.DB  0x0,0x0,0x0,0x0,0x0,0x0,0x80,0x3F
000375 0e90
000376 bc49
000377 fb11
000378 3f7f      	.DB  0x90,0xE,0x49,0xBC,0x11,0xFB,0x7F,0x3F
000379 0ab0
00037a bcc9
00037b ec43
00037c 3f7f      	.DB  0xB0,0xA,0xC9,0xBC,0x43,0xEC,0x7F,0x3F
00037d c32c
00037e bd16
00037f d397
000380 3f7f      	.DB  0x2C,0xC3,0x16,0xBD,0x97,0xD3,0x7F,0x3F
000381 fb30
000382 bd48
000383 b10f
000384 3f7f      	.DB  0x30,0xFB,0x48,0xBD,0xF,0xB1,0x7F,0x3F
000385 2b74
000386 bd7b
000387 84ab
000388 3f7f      	.DB  0x74,0x2B,0x7B,0xBD,0xAB,0x84,0x7F,0x3F
000389 a905
00038a bd96
00038b 4e6d
00038c 3f7f      	.DB  0x5,0xA9,0x96,0xBD,0x6D,0x4E,0x7F,0x3F
00038d b680
00038e bdaf
00038f 0e58
000390 3f7f      	.DB  0x80,0xB6,0xAF,0xBD,0x58,0xE,0x7F,0x3F
000391 bd36
000392 bdc8
000393 c46d
000394 3f7e      	.DB  0x36,0xBD,0xC8,0xBD,0x6D,0xC4,0x7E,0x3F
000395 bc2e
000396 bde1
000397 70b0
000398 3f7e      	.DB  0x2E,0xBC,0xE1,0xBD,0xB0,0x70,0x7E,0x3F
000399 b273
00039a bdfa
00039b 1324
00039c 3f7e      	.DB  0x73,0xB2,0xFA,0xBD,0x24,0x13,0x7E,0x3F
00039d cf86
00039e be09
00039f abcc
0003a0 3f7d      	.DB  0x86,0xCF,0x9,0xBE,0xCC,0xAB,0x7D,0x3F
0003a1 4083
0003a2 be16
0003a3 3aac
0003a4 3f7d      	.DB  0x83,0x40,0x16,0xBE,0xAC,0x3A,0x7D,0x3F
0003a5 abb6
0003a6 be22
0003a7 bfc9
0003a8 3f7c      	.DB  0xB6,0xAB,0x22,0xBE,0xC9,0xBF,0x7C,0x3F
0003a9 10a2
0003aa be2f
0003ab 3b28
0003ac 3f7c      	.DB  0xA2,0x10,0x2F,0xBE,0x28,0x3B,0x7C,0x3F
0003ad 6ecf
0003ae be3b
0003af accd
0003b0 3f7b      	.DB  0xCF,0x6E,0x3B,0xBE,0xCD,0xAC,0x7B,0x3F
0003b1 c5c2
0003b2 be47
0003b3 14be
0003b4 3f7b      	.DB  0xC2,0xC5,0x47,0xBE,0xBE,0x14,0x7B,0x3F
0003b5 1501
0003b6 be54
0003b7 7302
0003b8 3f7a      	.DB  0x1,0x15,0x54,0xBE,0x2,0x73,0x7A,0x3F
0003b9 5c13
0003ba be60
0003bb c79d
0003bc 3f79      	.DB  0x13,0x5C,0x60,0xBE,0x9D,0xC7,0x79,0x3F
0003bd 9a7f
0003be be6c
0003bf 1298
0003c0 3f79      	.DB  0x7F,0x9A,0x6C,0xBE,0x98,0x12,0x79,0x3F
0003c1 cfcc
0003c2 be78
0003c3 53f8
0003c4 3f78      	.DB  0xCC,0xCF,0x78,0xBE,0xF8,0x53,0x78,0x3F
0003c5 7dc0
0003c6 be82
0003c7 8bc5
0003c8 3f77      	.DB  0xC0,0x7D,0x82,0xBE,0xC5,0x8B,0x77,0x3F
0003c9 8e93
0003ca be88
0003cb ba07
0003cc 3f76      	.DB  0x93,0x8E,0x88,0xBE,0x7,0xBA,0x76,0x3F
0003cd 9a22
0003ce be8e
0003cf dec6
0003d0 3f75      	.DB  0x22,0x9A,0x8E,0xBE,0xC6,0xDE,0x75,0x3F
0003d1 a031
0003d2 be94
0003d3 fa0b
0003d4 3f74      	.DB  0x31,0xA0,0x94,0xBE,0xB,0xFA,0x74,0x3F
0003d5 a086
0003d6 be9a
0003d7 0bdd
0003d8 3f74      	.DB  0x86,0xA0,0x9A,0xBE,0xDD,0xB,0x74,0x3F
0003d9 9ae5
0003da bea0
0003db 1447
0003dc 3f73      	.DB  0xE5,0x9A,0xA0,0xBE,0x47,0x14,0x73,0x3F
0003dd 8f12
0003de bea6
0003df 1352
0003e0 3f72      	.DB  0x12,0x8F,0xA6,0xBE,0x52,0x13,0x72,0x3F
0003e1 7cd4
0003e2 beac
0003e3 0908
0003e4 3f71      	.DB  0xD4,0x7C,0xAC,0xBE,0x8,0x9,0x71,0x3F
0003e5 63ef
0003e6 beb2
0003e7 f573
0003e8 3f6f      	.DB  0xEF,0x63,0xB2,0xBE,0x73,0xF5,0x6F,0x3F
0003e9 442a
0003ea beb8
0003eb d89e
0003ec 3f6e      	.DB  0x2A,0x44,0xB8,0xBE,0x9E,0xD8,0x6E,0x3F
0003ed 1d4a
0003ee bebe
0003ef b293
0003f0 3f6d      	.DB  0x4A,0x1D,0xBE,0xBE,0x93,0xB2,0x6D,0x3F
0003f1 ef15
0003f2 bec3
0003f3 835e
0003f4 3f6c      	.DB  0x15,0xEF,0xC3,0xBE,0x5E,0x83,0x6C,0x3F
0003f5 b953
0003f6 bec9
0003f7 4b0c
0003f8 3f6b      	.DB  0x53,0xB9,0xC9,0xBE,0xC,0x4B,0x6B,0x3F
0003f9 7bca
0003fa becf
0003fb 09a7
0003fc 3f6a      	.DB  0xCA,0x7B,0xCF,0xBE,0xA7,0x9,0x6A,0x3F
0003fd 3641
0003fe bed5
0003ff bf3c
000400 3f68      	.DB  0x41,0x36,0xD5,0xBE,0x3C,0xBF,0x68,0x3F
000401 e880
000402 beda
000403 6bd8
000404 3f67      	.DB  0x80,0xE8,0xDA,0xBE,0xD8,0x6B,0x67,0x3F
000405 924f
000406 bee0
000407 0f88
000408 3f66      	.DB  0x4F,0x92,0xE0,0xBE,0x88,0xF,0x66,0x3F
000409 3375
00040a bee6
00040b aa59
00040c 3f64      	.DB  0x75,0x33,0xE6,0xBE,0x59,0xAA,0x64,0x3F
00040d cbbb
00040e beeb
00040f 3c5a
000410 3f63      	.DB  0xBB,0xCB,0xEB,0xBE,0x5A,0x3C,0x63,0x3F
000411 5aea
000412 bef1
000413 c598
000414 3f61      	.DB  0xEA,0x5A,0xF1,0xBE,0x98,0xC5,0x61,0x3F
000415 e0cb
000416 bef6
000417 4621
000418 3f60      	.DB  0xCB,0xE0,0xF6,0xBE,0x21,0x46,0x60,0x3F
000419 5d27
00041a befc
00041b be05
00041c 3f5e      	.DB  0x27,0x5D,0xFC,0xBE,0x5,0xBE,0x5E,0x3F
00041d e7e4
00041e bf00
00041f 2d53
000420 3f5d      	.DB  0xE4,0xE7,0x0,0xBF,0x53,0x2D,0x5D,0x3F
000421 9c3d
000422 bf03
000423 941a
000424 3f5b      	.DB  0x3D,0x9C,0x3,0xBF,0x1A,0x94,0x5B,0x3F
000425 4b82
000426 bf06
000427 f26a
000428 3f59      	.DB  0x82,0x4B,0x6,0xBF,0x6A,0xF2,0x59,0x3F
000429 f59b
00042a bf08
00042b 4853
00042c 3f58      	.DB  0x9B,0xF5,0x8,0xBF,0x53,0x48,0x58,0x3F
00042d 9a6b
00042e bf0b
00042f 95e5
000430 3f56      	.DB  0x6B,0x9A,0xB,0xBF,0xE5,0x95,0x56,0x3F
000431 39da
000432 bf0e
000433 db31
000434 3f54      	.DB  0xDA,0x39,0xE,0xBF,0x31,0xDB,0x54,0x3F
000435 d3cd
000436 bf10
000437 1849
000438 3f53      	.DB  0xCD,0xD3,0x10,0xBF,0x49,0x18,0x53,0x3F
000439 682a
00043a bf13
00043b 4d3d
00043c 3f51      	.DB  0x2A,0x68,0x13,0xBF,0x3D,0x4D,0x51,0x3F
00043d f6d9
00043e bf15
00043f 7a1f
000440 3f4f      	.DB  0xD9,0xF6,0x15,0xBF,0x1F,0x7A,0x4F,0x3F
000441 7fc0
000442 bf18
000443 9f02
000444 3f4d      	.DB  0xC0,0x7F,0x18,0xBF,0x2,0x9F,0x4D,0x3F
000445 02c6
000446 bf1b
000447 bbf8
000448 3f4b      	.DB  0xC6,0x2,0x1B,0xBF,0xF8,0xBB,0x4B,0x3F
000449 7fd1
00044a bf1d
00044b d112
00044c 3f49      	.DB  0xD1,0x7F,0x1D,0xBF,0x12,0xD1,0x49,0x3F
00044d f6cb
00044e bf1f
00044f de65
000450 3f47      	.DB  0xCB,0xF6,0x1F,0xBF,0x65,0xDE,0x47,0x3F
000451 6799
000452 bf22
000453 e403
000454 3f45      	.DB  0x99,0x67,0x22,0xBF,0x3,0xE4,0x45,0x3F
000455 d225
000456 bf24
000457 e200
000458 3f43      	.DB  0x25,0xD2,0x24,0xBF,0x0,0xE2,0x43,0x3F
000459 3656
00045a bf27
00045b d870
00045c 3f41      	.DB  0x56,0x36,0x27,0xBF,0x70,0xD8,0x41,0x3F
00045d 9415
00045e bf29
00045f c767
000460 3f3f      	.DB  0x15,0x94,0x29,0xBF,0x67,0xC7,0x3F,0x3F
000461 eb4a
000462 bf2b
000463 aef9
000464 3f3d      	.DB  0x4A,0xEB,0x2B,0xBF,0xF9,0xAE,0x3D,0x3F
000465 3bde
000466 bf2e
000467 8f3b
000468 3f3b      	.DB  0xDE,0x3B,0x2E,0xBF,0x3B,0x8F,0x3B,0x3F
000469 85bb
00046a bf30
00046b 6842
00046c 3f39      	.DB  0xBB,0x85,0x30,0xBF,0x42,0x68,0x39,0x3F
00046d c8c9
00046e bf32
00046f 3a23
000470 3f37      	.DB  0xC9,0xC8,0x32,0xBF,0x23,0x3A,0x37,0x3F
000471 04f3
000472 bf35
000473 04f3
000474 3f35      	.DB  0xF3,0x4,0x35,0xBF,0xF3,0x4,0x35,0x3F
000475 3a23
000476 bf37
000477 c8c9
000478 3f32      	.DB  0x23,0x3A,0x37,0xBF,0xC9,0xC8,0x32,0x3F
000479 6842
00047a bf39
00047b 85bb
00047c 3f30      	.DB  0x42,0x68,0x39,0xBF,0xBB,0x85,0x30,0x3F
00047d 8f3b
00047e bf3b
00047f 3bde
000480 3f2e      	.DB  0x3B,0x8F,0x3B,0xBF,0xDE,0x3B,0x2E,0x3F
000481 aef9
000482 bf3d
000483 eb4a
000484 3f2b      	.DB  0xF9,0xAE,0x3D,0xBF,0x4A,0xEB,0x2B,0x3F
000485 c767
000486 bf3f
000487 9415
000488 3f29      	.DB  0x67,0xC7,0x3F,0xBF,0x15,0x94,0x29,0x3F
000489 d870
00048a bf41
00048b 3656
00048c 3f27      	.DB  0x70,0xD8,0x41,0xBF,0x56,0x36,0x27,0x3F
00048d e200
00048e bf43
00048f d225
000490 3f24      	.DB  0x0,0xE2,0x43,0xBF,0x25,0xD2,0x24,0x3F
000491 e403
000492 bf45
000493 6799
000494 3f22      	.DB  0x3,0xE4,0x45,0xBF,0x99,0x67,0x22,0x3F
000495 de65
000496 bf47
000497 f6cb
000498 3f1f      	.DB  0x65,0xDE,0x47,0xBF,0xCB,0xF6,0x1F,0x3F
000499 d112
00049a bf49
00049b 7fd1
00049c 3f1d      	.DB  0x12,0xD1,0x49,0xBF,0xD1,0x7F,0x1D,0x3F
00049d bbf8
00049e bf4b
00049f 02c6
0004a0 3f1b      	.DB  0xF8,0xBB,0x4B,0xBF,0xC6,0x2,0x1B,0x3F
0004a1 9f02
0004a2 bf4d
0004a3 7fc0
0004a4 3f18      	.DB  0x2,0x9F,0x4D,0xBF,0xC0,0x7F,0x18,0x3F
0004a5 7a1f
0004a6 bf4f
0004a7 f6d9
0004a8 3f15      	.DB  0x1F,0x7A,0x4F,0xBF,0xD9,0xF6,0x15,0x3F
0004a9 4d3d
0004aa bf51
0004ab 682a
0004ac 3f13      	.DB  0x3D,0x4D,0x51,0xBF,0x2A,0x68,0x13,0x3F
0004ad 1849
0004ae bf53
0004af d3cd
0004b0 3f10      	.DB  0x49,0x18,0x53,0xBF,0xCD,0xD3,0x10,0x3F
0004b1 db31
0004b2 bf54
0004b3 39da
0004b4 3f0e      	.DB  0x31,0xDB,0x54,0xBF,0xDA,0x39,0xE,0x3F
0004b5 95e5
0004b6 bf56
0004b7 9a6b
0004b8 3f0b      	.DB  0xE5,0x95,0x56,0xBF,0x6B,0x9A,0xB,0x3F
0004b9 4853
0004ba bf58
0004bb f59b
0004bc 3f08      	.DB  0x53,0x48,0x58,0xBF,0x9B,0xF5,0x8,0x3F
0004bd f26a
0004be bf59
0004bf 4b82
0004c0 3f06      	.DB  0x6A,0xF2,0x59,0xBF,0x82,0x4B,0x6,0x3F
0004c1 941a
0004c2 bf5b
0004c3 9c3d
0004c4 3f03      	.DB  0x1A,0x94,0x5B,0xBF,0x3D,0x9C,0x3,0x3F
0004c5 2d53
0004c6 bf5d
0004c7 e7e4
0004c8 3f00      	.DB  0x53,0x2D,0x5D,0xBF,0xE4,0xE7,0x0,0x3F
0004c9 be05
0004ca bf5e
0004cb 5d27
0004cc 3efc      	.DB  0x5,0xBE,0x5E,0xBF,0x27,0x5D,0xFC,0x3E
0004cd 4621
0004ce bf60
0004cf e0cb
0004d0 3ef6      	.DB  0x21,0x46,0x60,0xBF,0xCB,0xE0,0xF6,0x3E
0004d1 c598
0004d2 bf61
0004d3 5aea
0004d4 3ef1      	.DB  0x98,0xC5,0x61,0xBF,0xEA,0x5A,0xF1,0x3E
0004d5 3c5a
0004d6 bf63
0004d7 cbbb
0004d8 3eeb      	.DB  0x5A,0x3C,0x63,0xBF,0xBB,0xCB,0xEB,0x3E
0004d9 aa59
0004da bf64
0004db 3375
0004dc 3ee6      	.DB  0x59,0xAA,0x64,0xBF,0x75,0x33,0xE6,0x3E
0004dd 0f88
0004de bf66
0004df 924f
0004e0 3ee0      	.DB  0x88,0xF,0x66,0xBF,0x4F,0x92,0xE0,0x3E
0004e1 6bd8
0004e2 bf67
0004e3 e880
0004e4 3eda      	.DB  0xD8,0x6B,0x67,0xBF,0x80,0xE8,0xDA,0x3E
0004e5 bf3c
0004e6 bf68
0004e7 3641
0004e8 3ed5      	.DB  0x3C,0xBF,0x68,0xBF,0x41,0x36,0xD5,0x3E
0004e9 09a7
0004ea bf6a
0004eb 7bca
0004ec 3ecf      	.DB  0xA7,0x9,0x6A,0xBF,0xCA,0x7B,0xCF,0x3E
0004ed 4b0c
0004ee bf6b
0004ef b953
0004f0 3ec9      	.DB  0xC,0x4B,0x6B,0xBF,0x53,0xB9,0xC9,0x3E
0004f1 835e
0004f2 bf6c
0004f3 ef15
0004f4 3ec3      	.DB  0x5E,0x83,0x6C,0xBF,0x15,0xEF,0xC3,0x3E
0004f5 b293
0004f6 bf6d
0004f7 1d4a
0004f8 3ebe      	.DB  0x93,0xB2,0x6D,0xBF,0x4A,0x1D,0xBE,0x3E
0004f9 d89e
0004fa bf6e
0004fb 442a
0004fc 3eb8      	.DB  0x9E,0xD8,0x6E,0xBF,0x2A,0x44,0xB8,0x3E
0004fd f573
0004fe bf6f
0004ff 63ef
000500 3eb2      	.DB  0x73,0xF5,0x6F,0xBF,0xEF,0x63,0xB2,0x3E
000501 0908
000502 bf71
000503 7cd4
000504 3eac      	.DB  0x8,0x9,0x71,0xBF,0xD4,0x7C,0xAC,0x3E
000505 1352
000506 bf72
000507 8f12
000508 3ea6      	.DB  0x52,0x13,0x72,0xBF,0x12,0x8F,0xA6,0x3E
000509 1447
00050a bf73
00050b 9ae5
00050c 3ea0      	.DB  0x47,0x14,0x73,0xBF,0xE5,0x9A,0xA0,0x3E
00050d 0bdd
00050e bf74
00050f a086
000510 3e9a      	.DB  0xDD,0xB,0x74,0xBF,0x86,0xA0,0x9A,0x3E
000511 fa0b
000512 bf74
000513 a031
000514 3e94      	.DB  0xB,0xFA,0x74,0xBF,0x31,0xA0,0x94,0x3E
000515 dec6
000516 bf75
000517 9a22
000518 3e8e      	.DB  0xC6,0xDE,0x75,0xBF,0x22,0x9A,0x8E,0x3E
000519 ba07
00051a bf76
00051b 8e93
00051c 3e88      	.DB  0x7,0xBA,0x76,0xBF,0x93,0x8E,0x88,0x3E
00051d 8bc5
00051e bf77
00051f 7dc0
000520 3e82      	.DB  0xC5,0x8B,0x77,0xBF,0xC0,0x7D,0x82,0x3E
000521 53f8
000522 bf78
000523 cfcc
000524 3e78      	.DB  0xF8,0x53,0x78,0xBF,0xCC,0xCF,0x78,0x3E
000525 1298
000526 bf79
000527 9a7f
000528 3e6c      	.DB  0x98,0x12,0x79,0xBF,0x7F,0x9A,0x6C,0x3E
000529 c79d
00052a bf79
00052b 5c13
00052c 3e60      	.DB  0x9D,0xC7,0x79,0xBF,0x13,0x5C,0x60,0x3E
00052d 7302
00052e bf7a
00052f 1501
000530 3e54      	.DB  0x2,0x73,0x7A,0xBF,0x1,0x15,0x54,0x3E
000531 14be
000532 bf7b
000533 c5c2
000534 3e47      	.DB  0xBE,0x14,0x7B,0xBF,0xC2,0xC5,0x47,0x3E
000535 accd
000536 bf7b
000537 6ecf
000538 3e3b      	.DB  0xCD,0xAC,0x7B,0xBF,0xCF,0x6E,0x3B,0x3E
000539 3b28
00053a bf7c
00053b 10a2
00053c 3e2f      	.DB  0x28,0x3B,0x7C,0xBF,0xA2,0x10,0x2F,0x3E
00053d bfc9
00053e bf7c
00053f abb6
000540 3e22      	.DB  0xC9,0xBF,0x7C,0xBF,0xB6,0xAB,0x22,0x3E
000541 3aac
000542 bf7d
000543 4083
000544 3e16      	.DB  0xAC,0x3A,0x7D,0xBF,0x83,0x40,0x16,0x3E
000545 abcc
000546 bf7d
000547 cf86
000548 3e09      	.DB  0xCC,0xAB,0x7D,0xBF,0x86,0xCF,0x9,0x3E
000549 1324
00054a bf7e
00054b b273
00054c 3dfa      	.DB  0x24,0x13,0x7E,0xBF,0x73,0xB2,0xFA,0x3D
00054d 70b0
00054e bf7e
00054f bc2e
000550 3de1      	.DB  0xB0,0x70,0x7E,0xBF,0x2E,0xBC,0xE1,0x3D
000551 c46d
000552 bf7e
000553 bd36
000554 3dc8      	.DB  0x6D,0xC4,0x7E,0xBF,0x36,0xBD,0xC8,0x3D
000555 0e58
000556 bf7f
000557 b680
000558 3daf      	.DB  0x58,0xE,0x7F,0xBF,0x80,0xB6,0xAF,0x3D
000559 4e6d
00055a bf7f
00055b a905
00055c 3d96      	.DB  0x6D,0x4E,0x7F,0xBF,0x5,0xA9,0x96,0x3D
00055d 84ab
00055e bf7f
00055f 2b74
000560 3d7b      	.DB  0xAB,0x84,0x7F,0xBF,0x74,0x2B,0x7B,0x3D
000561 b10f
000562 bf7f
000563 fb30
000564 3d48      	.DB  0xF,0xB1,0x7F,0xBF,0x30,0xFB,0x48,0x3D
000565 d397
000566 bf7f
000567 c32c
000568 3d16      	.DB  0x97,0xD3,0x7F,0xBF,0x2C,0xC3,0x16,0x3D
000569 ec43
00056a bf7f
00056b 0ab0
00056c 3cc9      	.DB  0x43,0xEC,0x7F,0xBF,0xB0,0xA,0xC9,0x3C
00056d fb11
00056e bf7f
00056f 0e90
000570 3c49      	.DB  0x11,0xFB,0x7F,0xBF,0x90,0xE,0x49,0x3C
000571 0000
000572 bf80
000573 0000
000574 0000      	.DB  0x0,0x0,0x80,0xBF,0x0,0x0,0x0,0x0
000575 fb11
000576 bf7f
000577 0e90
000578 bc49      	.DB  0x11,0xFB,0x7F,0xBF,0x90,0xE,0x49,0xBC
000579 ec43
00057a bf7f
00057b 0ab0
00057c bcc9      	.DB  0x43,0xEC,0x7F,0xBF,0xB0,0xA,0xC9,0xBC
00057d d397
00057e bf7f
00057f c32c
000580 bd16      	.DB  0x97,0xD3,0x7F,0xBF,0x2C,0xC3,0x16,0xBD
000581 b10f
000582 bf7f
000583 fb30
000584 bd48      	.DB  0xF,0xB1,0x7F,0xBF,0x30,0xFB,0x48,0xBD
000585 84ab
000586 bf7f
000587 2b74
000588 bd7b      	.DB  0xAB,0x84,0x7F,0xBF,0x74,0x2B,0x7B,0xBD
000589 4e6d
00058a bf7f
00058b a905
00058c bd96      	.DB  0x6D,0x4E,0x7F,0xBF,0x5,0xA9,0x96,0xBD
00058d 0e58
00058e bf7f
00058f b680
000590 bdaf      	.DB  0x58,0xE,0x7F,0xBF,0x80,0xB6,0xAF,0xBD
000591 c46d
000592 bf7e
000593 bd36
000594 bdc8      	.DB  0x6D,0xC4,0x7E,0xBF,0x36,0xBD,0xC8,0xBD
000595 70b0
000596 bf7e
000597 bc2e
000598 bde1      	.DB  0xB0,0x70,0x7E,0xBF,0x2E,0xBC,0xE1,0xBD
000599 1324
00059a bf7e
00059b b273
00059c bdfa      	.DB  0x24,0x13,0x7E,0xBF,0x73,0xB2,0xFA,0xBD
00059d abcc
00059e bf7d
00059f cf86
0005a0 be09      	.DB  0xCC,0xAB,0x7D,0xBF,0x86,0xCF,0x9,0xBE
0005a1 3aac
0005a2 bf7d
0005a3 4083
0005a4 be16      	.DB  0xAC,0x3A,0x7D,0xBF,0x83,0x40,0x16,0xBE
0005a5 bfc9
0005a6 bf7c
0005a7 abb6
0005a8 be22      	.DB  0xC9,0xBF,0x7C,0xBF,0xB6,0xAB,0x22,0xBE
0005a9 3b28
0005aa bf7c
0005ab 10a2
0005ac be2f      	.DB  0x28,0x3B,0x7C,0xBF,0xA2,0x10,0x2F,0xBE
0005ad accd
0005ae bf7b
0005af 6ecf
0005b0 be3b      	.DB  0xCD,0xAC,0x7B,0xBF,0xCF,0x6E,0x3B,0xBE
0005b1 14be
0005b2 bf7b
0005b3 c5c2
0005b4 be47      	.DB  0xBE,0x14,0x7B,0xBF,0xC2,0xC5,0x47,0xBE
0005b5 7302
0005b6 bf7a
0005b7 1501
0005b8 be54      	.DB  0x2,0x73,0x7A,0xBF,0x1,0x15,0x54,0xBE
0005b9 c79d
0005ba bf79
0005bb 5c13
0005bc be60      	.DB  0x9D,0xC7,0x79,0xBF,0x13,0x5C,0x60,0xBE
0005bd 1298
0005be bf79
0005bf 9a7f
0005c0 be6c      	.DB  0x98,0x12,0x79,0xBF,0x7F,0x9A,0x6C,0xBE
0005c1 53f8
0005c2 bf78
0005c3 cfcc
0005c4 be78      	.DB  0xF8,0x53,0x78,0xBF,0xCC,0xCF,0x78,0xBE
0005c5 8bc5
0005c6 bf77
0005c7 7dc0
0005c8 be82      	.DB  0xC5,0x8B,0x77,0xBF,0xC0,0x7D,0x82,0xBE
0005c9 ba07
0005ca bf76
0005cb 8e93
0005cc be88      	.DB  0x7,0xBA,0x76,0xBF,0x93,0x8E,0x88,0xBE
0005cd dec6
0005ce bf75
0005cf 9a22
0005d0 be8e      	.DB  0xC6,0xDE,0x75,0xBF,0x22,0x9A,0x8E,0xBE
0005d1 fa0b
0005d2 bf74
0005d3 a031
0005d4 be94      	.DB  0xB,0xFA,0x74,0xBF,0x31,0xA0,0x94,0xBE
0005d5 0bdd
0005d6 bf74
0005d7 a086
0005d8 be9a      	.DB  0xDD,0xB,0x74,0xBF,0x86,0xA0,0x9A,0xBE
0005d9 1447
0005da bf73
0005db 9ae5
0005dc bea0      	.DB  0x47,0x14,0x73,0xBF,0xE5,0x9A,0xA0,0xBE
0005dd 1352
0005de bf72
0005df 8f12
0005e0 bea6      	.DB  0x52,0x13,0x72,0xBF,0x12,0x8F,0xA6,0xBE
0005e1 0908
0005e2 bf71
0005e3 7cd4
0005e4 beac      	.DB  0x8,0x9,0x71,0xBF,0xD4,0x7C,0xAC,0xBE
0005e5 f573
0005e6 bf6f
0005e7 63ef
0005e8 beb2      	.DB  0x73,0xF5,0x6F,0xBF,0xEF,0x63,0xB2,0xBE
0005e9 d89e
0005ea bf6e
0005eb 442a
0005ec beb8      	.DB  0x9E,0xD8,0x6E,0xBF,0x2A,0x44,0xB8,0xBE
0005ed b293
0005ee bf6d
0005ef 1d4a
0005f0 bebe      	.DB  0x93,0xB2,0x6D,0xBF,0x4A,0x1D,0xBE,0xBE
0005f1 835e
0005f2 bf6c
0005f3 ef15
0005f4 bec3      	.DB  0x5E,0x83,0x6C,0xBF,0x15,0xEF,0xC3,0xBE
0005f5 4b0c
0005f6 bf6b
0005f7 b953
0005f8 bec9      	.DB  0xC,0x4B,0x6B,0xBF,0x53,0xB9,0xC9,0xBE
0005f9 09a7
0005fa bf6a
0005fb 7bca
0005fc becf      	.DB  0xA7,0x9,0x6A,0xBF,0xCA,0x7B,0xCF,0xBE
0005fd bf3c
0005fe bf68
0005ff 3641
000600 bed5      	.DB  0x3C,0xBF,0x68,0xBF,0x41,0x36,0xD5,0xBE
000601 6bd8
000602 bf67
000603 e880
000604 beda      	.DB  0xD8,0x6B,0x67,0xBF,0x80,0xE8,0xDA,0xBE
000605 0f88
000606 bf66
000607 924f
000608 bee0      	.DB  0x88,0xF,0x66,0xBF,0x4F,0x92,0xE0,0xBE
000609 aa59
00060a bf64
00060b 3375
00060c bee6      	.DB  0x59,0xAA,0x64,0xBF,0x75,0x33,0xE6,0xBE
00060d 3c5a
00060e bf63
00060f cbbb
000610 beeb      	.DB  0x5A,0x3C,0x63,0xBF,0xBB,0xCB,0xEB,0xBE
000611 c598
000612 bf61
000613 5aea
000614 bef1      	.DB  0x98,0xC5,0x61,0xBF,0xEA,0x5A,0xF1,0xBE
000615 4621
000616 bf60
000617 e0cb
000618 bef6      	.DB  0x21,0x46,0x60,0xBF,0xCB,0xE0,0xF6,0xBE
000619 be05
00061a bf5e
00061b 5d27
00061c befc      	.DB  0x5,0xBE,0x5E,0xBF,0x27,0x5D,0xFC,0xBE
00061d 2d53
00061e bf5d
00061f e7e4
000620 bf00      	.DB  0x53,0x2D,0x5D,0xBF,0xE4,0xE7,0x0,0xBF
000621 941a
000622 bf5b
000623 9c3d
000624 bf03      	.DB  0x1A,0x94,0x5B,0xBF,0x3D,0x9C,0x3,0xBF
000625 f26a
000626 bf59
000627 4b82
000628 bf06      	.DB  0x6A,0xF2,0x59,0xBF,0x82,0x4B,0x6,0xBF
000629 4853
00062a bf58
00062b f59b
00062c bf08      	.DB  0x53,0x48,0x58,0xBF,0x9B,0xF5,0x8,0xBF
00062d 95e5
00062e bf56
00062f 9a6b
000630 bf0b      	.DB  0xE5,0x95,0x56,0xBF,0x6B,0x9A,0xB,0xBF
000631 db31
000632 bf54
000633 39da
000634 bf0e      	.DB  0x31,0xDB,0x54,0xBF,0xDA,0x39,0xE,0xBF
000635 1849
000636 bf53
000637 d3cd
000638 bf10      	.DB  0x49,0x18,0x53,0xBF,0xCD,0xD3,0x10,0xBF
000639 4d3d
00063a bf51
00063b 682a
00063c bf13      	.DB  0x3D,0x4D,0x51,0xBF,0x2A,0x68,0x13,0xBF
00063d 7a1f
00063e bf4f
00063f f6d9
000640 bf15      	.DB  0x1F,0x7A,0x4F,0xBF,0xD9,0xF6,0x15,0xBF
000641 9f02
000642 bf4d
000643 7fc0
000644 bf18      	.DB  0x2,0x9F,0x4D,0xBF,0xC0,0x7F,0x18,0xBF
000645 bbf8
000646 bf4b
000647 02c6
000648 bf1b      	.DB  0xF8,0xBB,0x4B,0xBF,0xC6,0x2,0x1B,0xBF
000649 d112
00064a bf49
00064b 7fd1
00064c bf1d      	.DB  0x12,0xD1,0x49,0xBF,0xD1,0x7F,0x1D,0xBF
00064d de65
00064e bf47
00064f f6cb
000650 bf1f      	.DB  0x65,0xDE,0x47,0xBF,0xCB,0xF6,0x1F,0xBF
000651 e403
000652 bf45
000653 6799
000654 bf22      	.DB  0x3,0xE4,0x45,0xBF,0x99,0x67,0x22,0xBF
000655 e200
000656 bf43
000657 d225
000658 bf24      	.DB  0x0,0xE2,0x43,0xBF,0x25,0xD2,0x24,0xBF
000659 d870
00065a bf41
00065b 3656
00065c bf27      	.DB  0x70,0xD8,0x41,0xBF,0x56,0x36,0x27,0xBF
00065d c767
00065e bf3f
00065f 9415
000660 bf29      	.DB  0x67,0xC7,0x3F,0xBF,0x15,0x94,0x29,0xBF
000661 aef9
000662 bf3d
000663 eb4a
000664 bf2b      	.DB  0xF9,0xAE,0x3D,0xBF,0x4A,0xEB,0x2B,0xBF
000665 8f3b
000666 bf3b
000667 3bde
000668 bf2e      	.DB  0x3B,0x8F,0x3B,0xBF,0xDE,0x3B,0x2E,0xBF
000669 6842
00066a bf39
00066b 85bb
00066c bf30      	.DB  0x42,0x68,0x39,0xBF,0xBB,0x85,0x30,0xBF
00066d 3a23
00066e bf37
00066f c8c9
000670 bf32      	.DB  0x23,0x3A,0x37,0xBF,0xC9,0xC8,0x32,0xBF
000671 04f3
000672 bf35
000673 04f3
000674 bf35      	.DB  0xF3,0x4,0x35,0xBF,0xF3,0x4,0x35,0xBF
000675 c8c9
000676 bf32
000677 3a23
000678 bf37      	.DB  0xC9,0xC8,0x32,0xBF,0x23,0x3A,0x37,0xBF
000679 85bb
00067a bf30
00067b 6842
00067c bf39      	.DB  0xBB,0x85,0x30,0xBF,0x42,0x68,0x39,0xBF
00067d 3bde
00067e bf2e
00067f 8f3b
000680 bf3b      	.DB  0xDE,0x3B,0x2E,0xBF,0x3B,0x8F,0x3B,0xBF
000681 eb4a
000682 bf2b
000683 aef9
000684 bf3d      	.DB  0x4A,0xEB,0x2B,0xBF,0xF9,0xAE,0x3D,0xBF
000685 9415
000686 bf29
000687 c767
000688 bf3f      	.DB  0x15,0x94,0x29,0xBF,0x67,0xC7,0x3F,0xBF
000689 3656
00068a bf27
00068b d870
00068c bf41      	.DB  0x56,0x36,0x27,0xBF,0x70,0xD8,0x41,0xBF
00068d d225
00068e bf24
00068f e200
000690 bf43      	.DB  0x25,0xD2,0x24,0xBF,0x0,0xE2,0x43,0xBF
000691 6799
000692 bf22
000693 e403
000694 bf45      	.DB  0x99,0x67,0x22,0xBF,0x3,0xE4,0x45,0xBF
000695 f6cb
000696 bf1f
000697 de65
000698 bf47      	.DB  0xCB,0xF6,0x1F,0xBF,0x65,0xDE,0x47,0xBF
000699 7fd1
00069a bf1d
00069b d112
00069c bf49      	.DB  0xD1,0x7F,0x1D,0xBF,0x12,0xD1,0x49,0xBF
00069d 02c6
00069e bf1b
00069f bbf8
0006a0 bf4b      	.DB  0xC6,0x2,0x1B,0xBF,0xF8,0xBB,0x4B,0xBF
0006a1 7fc0
0006a2 bf18
0006a3 9f02
0006a4 bf4d      	.DB  0xC0,0x7F,0x18,0xBF,0x2,0x9F,0x4D,0xBF
0006a5 f6d9
0006a6 bf15
0006a7 7a1f
0006a8 bf4f      	.DB  0xD9,0xF6,0x15,0xBF,0x1F,0x7A,0x4F,0xBF
0006a9 682a
0006aa bf13
0006ab 4d3d
0006ac bf51      	.DB  0x2A,0x68,0x13,0xBF,0x3D,0x4D,0x51,0xBF
0006ad d3cd
0006ae bf10
0006af 1849
0006b0 bf53      	.DB  0xCD,0xD3,0x10,0xBF,0x49,0x18,0x53,0xBF
0006b1 39da
0006b2 bf0e
0006b3 db31
0006b4 bf54      	.DB  0xDA,0x39,0xE,0xBF,0x31,0xDB,0x54,0xBF
0006b5 9a6b
0006b6 bf0b
0006b7 95e5
0006b8 bf56      	.DB  0x6B,0x9A,0xB,0xBF,0xE5,0x95,0x56,0xBF
0006b9 f59b
0006ba bf08
0006bb 4853
0006bc bf58      	.DB  0x9B,0xF5,0x8,0xBF,0x53,0x48,0x58,0xBF
0006bd 4b82
0006be bf06
0006bf f26a
0006c0 bf59      	.DB  0x82,0x4B,0x6,0xBF,0x6A,0xF2,0x59,0xBF
0006c1 9c3d
0006c2 bf03
0006c3 941a
0006c4 bf5b      	.DB  0x3D,0x9C,0x3,0xBF,0x1A,0x94,0x5B,0xBF
0006c5 e7e4
0006c6 bf00
0006c7 2d53
0006c8 bf5d      	.DB  0xE4,0xE7,0x0,0xBF,0x53,0x2D,0x5D,0xBF
0006c9 5d27
0006ca befc
0006cb be05
0006cc bf5e      	.DB  0x27,0x5D,0xFC,0xBE,0x5,0xBE,0x5E,0xBF
0006cd e0cb
0006ce bef6
0006cf 4621
0006d0 bf60      	.DB  0xCB,0xE0,0xF6,0xBE,0x21,0x46,0x60,0xBF
0006d1 5aea
0006d2 bef1
0006d3 c598
0006d4 bf61      	.DB  0xEA,0x5A,0xF1,0xBE,0x98,0xC5,0x61,0xBF
0006d5 cbbb
0006d6 beeb
0006d7 3c5a
0006d8 bf63      	.DB  0xBB,0xCB,0xEB,0xBE,0x5A,0x3C,0x63,0xBF
0006d9 3375
0006da bee6
0006db aa59
0006dc bf64      	.DB  0x75,0x33,0xE6,0xBE,0x59,0xAA,0x64,0xBF
0006dd 924f
0006de bee0
0006df 0f88
0006e0 bf66      	.DB  0x4F,0x92,0xE0,0xBE,0x88,0xF,0x66,0xBF
0006e1 e880
0006e2 beda
0006e3 6bd8
0006e4 bf67      	.DB  0x80,0xE8,0xDA,0xBE,0xD8,0x6B,0x67,0xBF
0006e5 3641
0006e6 bed5
0006e7 bf3c
0006e8 bf68      	.DB  0x41,0x36,0xD5,0xBE,0x3C,0xBF,0x68,0xBF
0006e9 7bca
0006ea becf
0006eb 09a7
0006ec bf6a      	.DB  0xCA,0x7B,0xCF,0xBE,0xA7,0x9,0x6A,0xBF
0006ed b953
0006ee bec9
0006ef 4b0c
0006f0 bf6b      	.DB  0x53,0xB9,0xC9,0xBE,0xC,0x4B,0x6B,0xBF
0006f1 ef15
0006f2 bec3
0006f3 835e
0006f4 bf6c      	.DB  0x15,0xEF,0xC3,0xBE,0x5E,0x83,0x6C,0xBF
0006f5 1d4a
0006f6 bebe
0006f7 b293
0006f8 bf6d      	.DB  0x4A,0x1D,0xBE,0xBE,0x93,0xB2,0x6D,0xBF
0006f9 442a
0006fa beb8
0006fb d89e
0006fc bf6e      	.DB  0x2A,0x44,0xB8,0xBE,0x9E,0xD8,0x6E,0xBF
0006fd 63ef
0006fe beb2
0006ff f573
000700 bf6f      	.DB  0xEF,0x63,0xB2,0xBE,0x73,0xF5,0x6F,0xBF
000701 7cd4
000702 beac
000703 0908
000704 bf71      	.DB  0xD4,0x7C,0xAC,0xBE,0x8,0x9,0x71,0xBF
000705 8f12
000706 bea6
000707 1352
000708 bf72      	.DB  0x12,0x8F,0xA6,0xBE,0x52,0x13,0x72,0xBF
000709 9ae5
00070a bea0
00070b 1447
00070c bf73      	.DB  0xE5,0x9A,0xA0,0xBE,0x47,0x14,0x73,0xBF
00070d a086
00070e be9a
00070f 0bdd
000710 bf74      	.DB  0x86,0xA0,0x9A,0xBE,0xDD,0xB,0x74,0xBF
000711 a031
000712 be94
000713 fa0b
000714 bf74      	.DB  0x31,0xA0,0x94,0xBE,0xB,0xFA,0x74,0xBF
000715 9a22
000716 be8e
000717 dec6
000718 bf75      	.DB  0x22,0x9A,0x8E,0xBE,0xC6,0xDE,0x75,0xBF
000719 8e93
00071a be88
00071b ba07
00071c bf76      	.DB  0x93,0x8E,0x88,0xBE,0x7,0xBA,0x76,0xBF
00071d 7dc0
00071e be82
00071f 8bc5
000720 bf77      	.DB  0xC0,0x7D,0x82,0xBE,0xC5,0x8B,0x77,0xBF
000721 cfcc
000722 be78
000723 53f8
000724 bf78      	.DB  0xCC,0xCF,0x78,0xBE,0xF8,0x53,0x78,0xBF
000725 9a7f
000726 be6c
000727 1298
000728 bf79      	.DB  0x7F,0x9A,0x6C,0xBE,0x98,0x12,0x79,0xBF
000729 5c13
00072a be60
00072b c79d
00072c bf79      	.DB  0x13,0x5C,0x60,0xBE,0x9D,0xC7,0x79,0xBF
00072d 1501
00072e be54
00072f 7302
000730 bf7a      	.DB  0x1,0x15,0x54,0xBE,0x2,0x73,0x7A,0xBF
000731 c5c2
000732 be47
000733 14be
000734 bf7b      	.DB  0xC2,0xC5,0x47,0xBE,0xBE,0x14,0x7B,0xBF
000735 6ecf
000736 be3b
000737 accd
000738 bf7b      	.DB  0xCF,0x6E,0x3B,0xBE,0xCD,0xAC,0x7B,0xBF
000739 10a2
00073a be2f
00073b 3b28
00073c bf7c      	.DB  0xA2,0x10,0x2F,0xBE,0x28,0x3B,0x7C,0xBF
00073d abb6
00073e be22
00073f bfc9
000740 bf7c      	.DB  0xB6,0xAB,0x22,0xBE,0xC9,0xBF,0x7C,0xBF
000741 4083
000742 be16
000743 3aac
000744 bf7d      	.DB  0x83,0x40,0x16,0xBE,0xAC,0x3A,0x7D,0xBF
000745 cf86
000746 be09
000747 abcc
000748 bf7d      	.DB  0x86,0xCF,0x9,0xBE,0xCC,0xAB,0x7D,0xBF
000749 b273
00074a bdfa
00074b 1324
00074c bf7e      	.DB  0x73,0xB2,0xFA,0xBD,0x24,0x13,0x7E,0xBF
00074d bc2e
00074e bde1
00074f 70b0
000750 bf7e      	.DB  0x2E,0xBC,0xE1,0xBD,0xB0,0x70,0x7E,0xBF
000751 bd36
000752 bdc8
000753 c46d
000754 bf7e      	.DB  0x36,0xBD,0xC8,0xBD,0x6D,0xC4,0x7E,0xBF
000755 b680
000756 bdaf
000757 0e58
000758 bf7f      	.DB  0x80,0xB6,0xAF,0xBD,0x58,0xE,0x7F,0xBF
000759 a905
00075a bd96
00075b 4e6d
00075c bf7f      	.DB  0x5,0xA9,0x96,0xBD,0x6D,0x4E,0x7F,0xBF
00075d 2b74
00075e bd7b
00075f 84ab
000760 bf7f      	.DB  0x74,0x2B,0x7B,0xBD,0xAB,0x84,0x7F,0xBF
000761 fb30
000762 bd48
000763 b10f
000764 bf7f      	.DB  0x30,0xFB,0x48,0xBD,0xF,0xB1,0x7F,0xBF
000765 c32c
000766 bd16
000767 d397
000768 bf7f      	.DB  0x2C,0xC3,0x16,0xBD,0x97,0xD3,0x7F,0xBF
000769 0ab0
00076a bcc9
00076b ec43
00076c bf7f      	.DB  0xB0,0xA,0xC9,0xBC,0x43,0xEC,0x7F,0xBF
00076d 0e90
00076e bc49
00076f fb11
000770 bf7f      	.DB  0x90,0xE,0x49,0xBC,0x11,0xFB,0x7F,0xBF
000771 0000
000772 0000
000773 0000
000774 bf80      	.DB  0x0,0x0,0x0,0x0,0x0,0x0,0x80,0xBF
000775 0e90
000776 3c49
000777 fb11
000778 bf7f      	.DB  0x90,0xE,0x49,0x3C,0x11,0xFB,0x7F,0xBF
000779 0ab0
00077a 3cc9
00077b ec43
00077c bf7f      	.DB  0xB0,0xA,0xC9,0x3C,0x43,0xEC,0x7F,0xBF
00077d c32c
00077e 3d16
00077f d397
000780 bf7f      	.DB  0x2C,0xC3,0x16,0x3D,0x97,0xD3,0x7F,0xBF
000781 fb30
000782 3d48
000783 b10f
000784 bf7f      	.DB  0x30,0xFB,0x48,0x3D,0xF,0xB1,0x7F,0xBF
000785 2b74
000786 3d7b
000787 84ab
000788 bf7f      	.DB  0x74,0x2B,0x7B,0x3D,0xAB,0x84,0x7F,0xBF
000789 a905
00078a 3d96
00078b 4e6d
00078c bf7f      	.DB  0x5,0xA9,0x96,0x3D,0x6D,0x4E,0x7F,0xBF
00078d b680
00078e 3daf
00078f 0e58
000790 bf7f      	.DB  0x80,0xB6,0xAF,0x3D,0x58,0xE,0x7F,0xBF
000791 bd36
000792 3dc8
000793 c46d
000794 bf7e      	.DB  0x36,0xBD,0xC8,0x3D,0x6D,0xC4,0x7E,0xBF
000795 bc2e
000796 3de1
000797 70b0
000798 bf7e      	.DB  0x2E,0xBC,0xE1,0x3D,0xB0,0x70,0x7E,0xBF
000799 b273
00079a 3dfa
00079b 1324
00079c bf7e      	.DB  0x73,0xB2,0xFA,0x3D,0x24,0x13,0x7E,0xBF
00079d cf86
00079e 3e09
00079f abcc
0007a0 bf7d      	.DB  0x86,0xCF,0x9,0x3E,0xCC,0xAB,0x7D,0xBF
0007a1 4083
0007a2 3e16
0007a3 3aac
0007a4 bf7d      	.DB  0x83,0x40,0x16,0x3E,0xAC,0x3A,0x7D,0xBF
0007a5 abb6
0007a6 3e22
0007a7 bfc9
0007a8 bf7c      	.DB  0xB6,0xAB,0x22,0x3E,0xC9,0xBF,0x7C,0xBF
0007a9 10a2
0007aa 3e2f
0007ab 3b28
0007ac bf7c      	.DB  0xA2,0x10,0x2F,0x3E,0x28,0x3B,0x7C,0xBF
0007ad 6ecf
0007ae 3e3b
0007af accd
0007b0 bf7b      	.DB  0xCF,0x6E,0x3B,0x3E,0xCD,0xAC,0x7B,0xBF
0007b1 c5c2
0007b2 3e47
0007b3 14be
0007b4 bf7b      	.DB  0xC2,0xC5,0x47,0x3E,0xBE,0x14,0x7B,0xBF
0007b5 1501
0007b6 3e54
0007b7 7302
0007b8 bf7a      	.DB  0x1,0x15,0x54,0x3E,0x2,0x73,0x7A,0xBF
0007b9 5c13
0007ba 3e60
0007bb c79d
0007bc bf79      	.DB  0x13,0x5C,0x60,0x3E,0x9D,0xC7,0x79,0xBF
0007bd 9a7f
0007be 3e6c
0007bf 1298
0007c0 bf79      	.DB  0x7F,0x9A,0x6C,0x3E,0x98,0x12,0x79,0xBF
0007c1 cfcc
0007c2 3e78
0007c3 53f8
0007c4 bf78      	.DB  0xCC,0xCF,0x78,0x3E,0xF8,0x53,0x78,0xBF
0007c5 7dc0
0007c6 3e82
0007c7 8bc5
0007c8 bf77      	.DB  0xC0,0x7D,0x82,0x3E,0xC5,0x8B,0x77,0xBF
0007c9 8e93
0007ca 3e88
0007cb ba07
0007cc bf76      	.DB  0x93,0x8E,0x88,0x3E,0x7,0xBA,0x76,0xBF
0007cd 9a22
0007ce 3e8e
0007cf dec6
0007d0 bf75      	.DB  0x22,0x9A,0x8E,0x3E,0xC6,0xDE,0x75,0xBF
0007d1 a031
0007d2 3e94
0007d3 fa0b
0007d4 bf74      	.DB  0x31,0xA0,0x94,0x3E,0xB,0xFA,0x74,0xBF
0007d5 a086
0007d6 3e9a
0007d7 0bdd
0007d8 bf74      	.DB  0x86,0xA0,0x9A,0x3E,0xDD,0xB,0x74,0xBF
0007d9 9ae5
0007da 3ea0
0007db 1447
0007dc bf73      	.DB  0xE5,0x9A,0xA0,0x3E,0x47,0x14,0x73,0xBF
0007dd 8f12
0007de 3ea6
0007df 1352
0007e0 bf72      	.DB  0x12,0x8F,0xA6,0x3E,0x52,0x13,0x72,0xBF
0007e1 7cd4
0007e2 3eac
0007e3 0908
0007e4 bf71      	.DB  0xD4,0x7C,0xAC,0x3E,0x8,0x9,0x71,0xBF
0007e5 63ef
0007e6 3eb2
0007e7 f573
0007e8 bf6f      	.DB  0xEF,0x63,0xB2,0x3E,0x73,0xF5,0x6F,0xBF
0007e9 442a
0007ea 3eb8
0007eb d89e
0007ec bf6e      	.DB  0x2A,0x44,0xB8,0x3E,0x9E,0xD8,0x6E,0xBF
0007ed 1d4a
0007ee 3ebe
0007ef b293
0007f0 bf6d      	.DB  0x4A,0x1D,0xBE,0x3E,0x93,0xB2,0x6D,0xBF
0007f1 ef15
0007f2 3ec3
0007f3 835e
0007f4 bf6c      	.DB  0x15,0xEF,0xC3,0x3E,0x5E,0x83,0x6C,0xBF
0007f5 b953
0007f6 3ec9
0007f7 4b0c
0007f8 bf6b      	.DB  0x53,0xB9,0xC9,0x3E,0xC,0x4B,0x6B,0xBF
0007f9 7bca
0007fa 3ecf
0007fb 09a7
0007fc bf6a      	.DB  0xCA,0x7B,0xCF,0x3E,0xA7,0x9,0x6A,0xBF
0007fd 3641
0007fe 3ed5
0007ff bf3c
000800 bf68      	.DB  0x41,0x36,0xD5,0x3E,0x3C,0xBF,0x68,0xBF
000801 e880
000802 3eda
000803 6bd8
000804 bf67      	.DB  0x80,0xE8,0xDA,0x3E,0xD8,0x6B,0x67,0xBF
000805 924f
000806 3ee0
000807 0f88
000808 bf66      	.DB  0x4F,0x92,0xE0,0x3E,0x88,0xF,0x66,0xBF
000809 3375
00080a 3ee6
00080b aa59
00080c bf64      	.DB  0x75,0x33,0xE6,0x3E,0x59,0xAA,0x64,0xBF
00080d cbbb
00080e 3eeb
00080f 3c5a
000810 bf63      	.DB  0xBB,0xCB,0xEB,0x3E,0x5A,0x3C,0x63,0xBF
000811 5aea
000812 3ef1
000813 c598
000814 bf61      	.DB  0xEA,0x5A,0xF1,0x3E,0x98,0xC5,0x61,0xBF
000815 e0cb
000816 3ef6
000817 4621
000818 bf60      	.DB  0xCB,0xE0,0xF6,0x3E,0x21,0x46,0x60,0xBF
000819 5d27
00081a 3efc
00081b be05
00081c bf5e      	.DB  0x27,0x5D,0xFC,0x3E,0x5,0xBE,0x5E,0xBF
00081d e7e4
00081e 3f00
00081f 2d53
000820 bf5d      	.DB  0xE4,0xE7,0x0,0x3F,0x53,0x2D,0x5D,0xBF
000821 9c3d
000822 3f03
000823 941a
000824 bf5b      	.DB  0x3D,0x9C,0x3,0x3F,0x1A,0x94,0x5B,0xBF
000825 4b82
000826 3f06
000827 f26a
000828 bf59      	.DB  0x82,0x4B,0x6,0x3F,0x6A,0xF2,0x59,0xBF
000829 f59b
00082a 3f08
00082b 4853
00082c bf58      	.DB  0x9B,0xF5,0x8,0x3F,0x53,0x48,0x58,0xBF
00082d 9a6b
00082e 3f0b
00082f 95e5
000830 bf56      	.DB  0x6B,0x9A,0xB,0x3F,0xE5,0x95,0x56,0xBF
000831 39da
000832 3f0e
000833 db31
000834 bf54      	.DB  0xDA,0x39,0xE,0x3F,0x31,0xDB,0x54,0xBF
000835 d3cd
000836 3f10
000837 1849
000838 bf53      	.DB  0xCD,0xD3,0x10,0x3F,0x49,0x18,0x53,0xBF
000839 682a
00083a 3f13
00083b 4d3d
00083c bf51      	.DB  0x2A,0x68,0x13,0x3F,0x3D,0x4D,0x51,0xBF
00083d f6d9
00083e 3f15
00083f 7a1f
000840 bf4f      	.DB  0xD9,0xF6,0x15,0x3F,0x1F,0x7A,0x4F,0xBF
000841 7fc0
000842 3f18
000843 9f02
000844 bf4d      	.DB  0xC0,0x7F,0x18,0x3F,0x2,0x9F,0x4D,0xBF
000845 02c6
000846 3f1b
000847 bbf8
000848 bf4b      	.DB  0xC6,0x2,0x1B,0x3F,0xF8,0xBB,0x4B,0xBF
000849 7fd1
00084a 3f1d
00084b d112
00084c bf49      	.DB  0xD1,0x7F,0x1D,0x3F,0x12,0xD1,0x49,0xBF
00084d f6cb
00084e 3f1f
00084f de65
000850 bf47      	.DB  0xCB,0xF6,0x1F,0x3F,0x65,0xDE,0x47,0xBF
000851 6799
000852 3f22
000853 e403
000854 bf45      	.DB  0x99,0x67,0x22,0x3F,0x3,0xE4,0x45,0xBF
000855 d225
000856 3f24
000857 e200
000858 bf43      	.DB  0x25,0xD2,0x24,0x3F,0x0,0xE2,0x43,0xBF
000859 3656
00085a 3f27
00085b d870
00085c bf41      	.DB  0x56,0x36,0x27,0x3F,0x70,0xD8,0x41,0xBF
00085d 9415
00085e 3f29
00085f c767
000860 bf3f      	.DB  0x15,0x94,0x29,0x3F,0x67,0xC7,0x3F,0xBF
000861 eb4a
000862 3f2b
000863 aef9
000864 bf3d      	.DB  0x4A,0xEB,0x2B,0x3F,0xF9,0xAE,0x3D,0xBF
000865 3bde
000866 3f2e
000867 8f3b
000868 bf3b      	.DB  0xDE,0x3B,0x2E,0x3F,0x3B,0x8F,0x3B,0xBF
000869 85bb
00086a 3f30
00086b 6842
00086c bf39      	.DB  0xBB,0x85,0x30,0x3F,0x42,0x68,0x39,0xBF
00086d c8c9
00086e 3f32
00086f 3a23
000870 bf37      	.DB  0xC9,0xC8,0x32,0x3F,0x23,0x3A,0x37,0xBF
000871 04f3
000872 3f35
000873 04f3
000874 bf35      	.DB  0xF3,0x4,0x35,0x3F,0xF3,0x4,0x35,0xBF
000875 3a23
000876 3f37
000877 c8c9
000878 bf32      	.DB  0x23,0x3A,0x37,0x3F,0xC9,0xC8,0x32,0xBF
000879 6842
00087a 3f39
00087b 85bb
00087c bf30      	.DB  0x42,0x68,0x39,0x3F,0xBB,0x85,0x30,0xBF
00087d 8f3b
00087e 3f3b
00087f 3bde
000880 bf2e      	.DB  0x3B,0x8F,0x3B,0x3F,0xDE,0x3B,0x2E,0xBF
000881 aef9
000882 3f3d
000883 eb4a
000884 bf2b      	.DB  0xF9,0xAE,0x3D,0x3F,0x4A,0xEB,0x2B,0xBF
000885 c767
000886 3f3f
000887 9415
000888 bf29      	.DB  0x67,0xC7,0x3F,0x3F,0x15,0x94,0x29,0xBF
000889 d870
00088a 3f41
00088b 3656
00088c bf27      	.DB  0x70,0xD8,0x41,0x3F,0x56,0x36,0x27,0xBF
00088d e200
00088e 3f43
00088f d225
000890 bf24      	.DB  0x0,0xE2,0x43,0x3F,0x25,0xD2,0x24,0xBF
000891 e403
000892 3f45
000893 6799
000894 bf22      	.DB  0x3,0xE4,0x45,0x3F,0x99,0x67,0x22,0xBF
000895 de65
000896 3f47
000897 f6cb
000898 bf1f      	.DB  0x65,0xDE,0x47,0x3F,0xCB,0xF6,0x1F,0xBF
000899 d112
00089a 3f49
00089b 7fd1
00089c bf1d      	.DB  0x12,0xD1,0x49,0x3F,0xD1,0x7F,0x1D,0xBF
00089d bbf8
00089e 3f4b
00089f 02c6
0008a0 bf1b      	.DB  0xF8,0xBB,0x4B,0x3F,0xC6,0x2,0x1B,0xBF
0008a1 9f02
0008a2 3f4d
0008a3 7fc0
0008a4 bf18      	.DB  0x2,0x9F,0x4D,0x3F,0xC0,0x7F,0x18,0xBF
0008a5 7a1f
0008a6 3f4f
0008a7 f6d9
0008a8 bf15      	.DB  0x1F,0x7A,0x4F,0x3F,0xD9,0xF6,0x15,0xBF
0008a9 4d3d
0008aa 3f51
0008ab 682a
0008ac bf13      	.DB  0x3D,0x4D,0x51,0x3F,0x2A,0x68,0x13,0xBF
0008ad 1849
0008ae 3f53
0008af d3cd
0008b0 bf10      	.DB  0x49,0x18,0x53,0x3F,0xCD,0xD3,0x10,0xBF
0008b1 db31
0008b2 3f54
0008b3 39da
0008b4 bf0e      	.DB  0x31,0xDB,0x54,0x3F,0xDA,0x39,0xE,0xBF
0008b5 95e5
0008b6 3f56
0008b7 9a6b
0008b8 bf0b      	.DB  0xE5,0x95,0x56,0x3F,0x6B,0x9A,0xB,0xBF
0008b9 4853
0008ba 3f58
0008bb f59b
0008bc bf08      	.DB  0x53,0x48,0x58,0x3F,0x9B,0xF5,0x8,0xBF
0008bd f26a
0008be 3f59
0008bf 4b82
0008c0 bf06      	.DB  0x6A,0xF2,0x59,0x3F,0x82,0x4B,0x6,0xBF
0008c1 941a
0008c2 3f5b
0008c3 9c3d
0008c4 bf03      	.DB  0x1A,0x94,0x5B,0x3F,0x3D,0x9C,0x3,0xBF
0008c5 2d53
0008c6 3f5d
0008c7 e7e4
0008c8 bf00      	.DB  0x53,0x2D,0x5D,0x3F,0xE4,0xE7,0x0,0xBF
0008c9 be05
0008ca 3f5e
0008cb 5d27
0008cc befc      	.DB  0x5,0xBE,0x5E,0x3F,0x27,0x5D,0xFC,0xBE
0008cd 4621
0008ce 3f60
0008cf e0cb
0008d0 bef6      	.DB  0x21,0x46,0x60,0x3F,0xCB,0xE0,0xF6,0xBE
0008d1 c598
0008d2 3f61
0008d3 5aea
0008d4 bef1      	.DB  0x98,0xC5,0x61,0x3F,0xEA,0x5A,0xF1,0xBE
0008d5 3c5a
0008d6 3f63
0008d7 cbbb
0008d8 beeb      	.DB  0x5A,0x3C,0x63,0x3F,0xBB,0xCB,0xEB,0xBE
0008d9 aa59
0008da 3f64
0008db 3375
0008dc bee6      	.DB  0x59,0xAA,0x64,0x3F,0x75,0x33,0xE6,0xBE
0008dd 0f88
0008de 3f66
0008df 924f
0008e0 bee0      	.DB  0x88,0xF,0x66,0x3F,0x4F,0x92,0xE0,0xBE
0008e1 6bd8
0008e2 3f67
0008e3 e880
0008e4 beda      	.DB  0xD8,0x6B,0x67,0x3F,0x80,0xE8,0xDA,0xBE
0008e5 bf3c
0008e6 3f68
0008e7 3641
0008e8 bed5      	.DB  0x3C,0xBF,0x68,0x3F,0x41,0x36,0xD5,0xBE
0008e9 09a7
0008ea 3f6a
0008eb 7bca
0008ec becf      	.DB  0xA7,0x9,0x6A,0x3F,0xCA,0x7B,0xCF,0xBE
0008ed 4b0c
0008ee 3f6b
0008ef b953
0008f0 bec9      	.DB  0xC,0x4B,0x6B,0x3F,0x53,0xB9,0xC9,0xBE
0008f1 835e
0008f2 3f6c
0008f3 ef15
0008f4 bec3      	.DB  0x5E,0x83,0x6C,0x3F,0x15,0xEF,0xC3,0xBE
0008f5 b293
0008f6 3f6d
0008f7 1d4a
0008f8 bebe      	.DB  0x93,0xB2,0x6D,0x3F,0x4A,0x1D,0xBE,0xBE
0008f9 d89e
0008fa 3f6e
0008fb 442a
0008fc beb8      	.DB  0x9E,0xD8,0x6E,0x3F,0x2A,0x44,0xB8,0xBE
0008fd f573
0008fe 3f6f
0008ff 63ef
000900 beb2      	.DB  0x73,0xF5,0x6F,0x3F,0xEF,0x63,0xB2,0xBE
000901 0908
000902 3f71
000903 7cd4
000904 beac      	.DB  0x8,0x9,0x71,0x3F,0xD4,0x7C,0xAC,0xBE
000905 1352
000906 3f72
000907 8f12
000908 bea6      	.DB  0x52,0x13,0x72,0x3F,0x12,0x8F,0xA6,0xBE
000909 1447
00090a 3f73
00090b 9ae5
00090c bea0      	.DB  0x47,0x14,0x73,0x3F,0xE5,0x9A,0xA0,0xBE
00090d 0bdd
00090e 3f74
00090f a086
000910 be9a      	.DB  0xDD,0xB,0x74,0x3F,0x86,0xA0,0x9A,0xBE
000911 fa0b
000912 3f74
000913 a031
000914 be94      	.DB  0xB,0xFA,0x74,0x3F,0x31,0xA0,0x94,0xBE
000915 dec6
000916 3f75
000917 9a22
000918 be8e      	.DB  0xC6,0xDE,0x75,0x3F,0x22,0x9A,0x8E,0xBE
000919 ba07
00091a 3f76
00091b 8e93
00091c be88      	.DB  0x7,0xBA,0x76,0x3F,0x93,0x8E,0x88,0xBE
00091d 8bc5
00091e 3f77
00091f 7dc0
000920 be82      	.DB  0xC5,0x8B,0x77,0x3F,0xC0,0x7D,0x82,0xBE
000921 53f8
000922 3f78
000923 cfcc
000924 be78      	.DB  0xF8,0x53,0x78,0x3F,0xCC,0xCF,0x78,0xBE
000925 1298
000926 3f79
000927 9a7f
000928 be6c      	.DB  0x98,0x12,0x79,0x3F,0x7F,0x9A,0x6C,0xBE
000929 c79d
00092a 3f79
00092b 5c13
00092c be60      	.DB  0x9D,0xC7,0x79,0x3F,0x13,0x5C,0x60,0xBE
00092d 7302
00092e 3f7a
00092f 1501
000930 be54      	.DB  0x2,0x73,0x7A,0x3F,0x1,0x15,0x54,0xBE
000931 14be
000932 3f7b
000933 c5c2
000934 be47      	.DB  0xBE,0x14,0x7B,0x3F,0xC2,0xC5,0x47,0xBE
000935 accd
000936 3f7b
000937 6ecf
000938 be3b      	.DB  0xCD,0xAC,0x7B,0x3F,0xCF,0x6E,0x3B,0xBE
000939 3b28
00093a 3f7c
00093b 10a2
00093c be2f      	.DB  0x28,0x3B,0x7C,0x3F,0xA2,0x10,0x2F,0xBE
00093d bfc9
00093e 3f7c
00093f abb6
000940 be22      	.DB  0xC9,0xBF,0x7C,0x3F,0xB6,0xAB,0x22,0xBE
000941 3aac
000942 3f7d
000943 4083
000944 be16      	.DB  0xAC,0x3A,0x7D,0x3F,0x83,0x40,0x16,0xBE
000945 abcc
000946 3f7d
000947 cf86
000948 be09      	.DB  0xCC,0xAB,0x7D,0x3F,0x86,0xCF,0x9,0xBE
000949 1324
00094a 3f7e
00094b b273
00094c bdfa      	.DB  0x24,0x13,0x7E,0x3F,0x73,0xB2,0xFA,0xBD
00094d 70b0
00094e 3f7e
00094f bc2e
000950 bde1      	.DB  0xB0,0x70,0x7E,0x3F,0x2E,0xBC,0xE1,0xBD
000951 c46d
000952 3f7e
000953 bd36
000954 bdc8      	.DB  0x6D,0xC4,0x7E,0x3F,0x36,0xBD,0xC8,0xBD
000955 0e58
000956 3f7f
000957 b680
000958 bdaf      	.DB  0x58,0xE,0x7F,0x3F,0x80,0xB6,0xAF,0xBD
000959 4e6d
00095a 3f7f
00095b a905
00095c bd96      	.DB  0x6D,0x4E,0x7F,0x3F,0x5,0xA9,0x96,0xBD
00095d 84ab
00095e 3f7f
00095f 2b74
000960 bd7b      	.DB  0xAB,0x84,0x7F,0x3F,0x74,0x2B,0x7B,0xBD
000961 b10f
000962 3f7f
000963 fb30
000964 bd48      	.DB  0xF,0xB1,0x7F,0x3F,0x30,0xFB,0x48,0xBD
000965 d397
000966 3f7f
000967 c32c
000968 bd16      	.DB  0x97,0xD3,0x7F,0x3F,0x2C,0xC3,0x16,0xBD
000969 ec43
00096a 3f7f
00096b 0ab0
00096c bcc9      	.DB  0x43,0xEC,0x7F,0x3F,0xB0,0xA,0xC9,0xBC
00096d fb11
00096e 3f7f
00096f 0e90
000970 bc49      	.DB  0x11,0xFB,0x7F,0x3F,0x90,0xE,0x49,0xBC
                 _tbl10_G103:
000971 2710
000972 03e8
000973 0064
000974 000a      	.DB  0x10,0x27,0xE8,0x3,0x64,0x0,0xA,0x0
000975 0001      	.DB  0x1,0x0
                 _tbl16_G103:
000976 1000
000977 0100
000978 0010
000979 0001      	.DB  0x0,0x10,0x0,0x1,0x10,0x0,0x1,0x0
                 
                 _0x4B:
00097a 0000
00097b 437f      	.DB  0x0,0x0,0x7F,0x43
                 _0x4C:
00097c b185
00097d b905      	.DB  0x85,0xB1,0x5,0xB9
                 _0x4D:
00097e d090
D:\Univ\Project\FFT\Programs\TESTs\ADC Tests\ADC Test V - 003 - double DMA - Keypad\List\at.asm(1907): warning: .cseg .db misalignment - padding zero byte
00097f 0003      	.DB  0x90,0xD0,0x3
                 _0x0:
000980 6163
000981 696c
000982 7262
000983 7461      	.DB  0x63,0x61,0x6C,0x69,0x62,0x72,0x61,0x74
000984 0065
000985 6153
000986 706d
000987 696c      	.DB  0x65,0x0,0x53,0x61,0x6D,0x70,0x6C,0x69
000988 676e
000989 4620
00098a 6572
00098b 2071      	.DB  0x6E,0x67,0x20,0x46,0x72,0x65,0x71,0x20
00098c 003d
00098d 484b
00098e 007a
00098f 6553      	.DB  0x3D,0x0,0x4B,0x48,0x7A,0x0,0x53,0x65
000990 2074
000991 6153
000992 706d
000993 4620      	.DB  0x74,0x20,0x53,0x61,0x6D,0x70,0x20,0x46
000994 6572
000995 3a71
000996 5000
000997 7265      	.DB  0x72,0x65,0x71,0x3A,0x0,0x50,0x65,0x72
000998 6944
000999 2076
00099a 6156
00099b 006c      	.DB  0x44,0x69,0x76,0x20,0x56,0x61,0x6C,0x0
00099c 2020
00099d 0020
00099e 6553
00099f 2074      	.DB  0x20,0x20,0x20,0x0,0x53,0x65,0x74,0x20
0009a0 6550
0009a1 4472
0009a2 7669
0009a3 5620      	.DB  0x50,0x65,0x72,0x44,0x69,0x76,0x20,0x56
0009a4 6c61
0009a5 003a
0009a6 694d
0009a7 206e      	.DB  0x61,0x6C,0x3A,0x0,0x4D,0x69,0x6E,0x20
0009a8 6156
0009a9 006c
0009aa 6553
0009ab 2074      	.DB  0x56,0x61,0x6C,0x0,0x53,0x65,0x74,0x20
0009ac 694d
0009ad 206e
0009ae 6156
0009af 3a6c      	.DB  0x4D,0x69,0x6E,0x20,0x56,0x61,0x6C,0x3A
0009b0 4700
0009b1 6961
0009b2 206e
0009b3 203d      	.DB  0x0,0x47,0x61,0x69,0x6E,0x20,0x3D,0x20
0009b4 5300
0009b5 7465
0009b6 4720
0009b7 6961      	.DB  0x0,0x53,0x65,0x74,0x20,0x47,0x61,0x69
0009b8 3a6e
0009b9 0020
0009ba 7a4d
0009bb 005a      	.DB  0x6E,0x3A,0x20,0x0,0x4D,0x7A,0x5A,0x0
                 _0x2000003:
0009bc c080      	.DB  0x80,0xC0
                 _0x2040060:
D:\Univ\Project\FFT\Programs\TESTs\ADC Tests\ADC Test V - 003 - double DMA - Keypad\List\at.asm(1927): warning: .cseg .db misalignment - padding zero byte
0009bd 0001      	.DB  0x1
                 _0x2040000:
0009be 4e2d
0009bf 4e41
0009c0 4900
0009c1 464e      	.DB  0x2D,0x4E,0x41,0x4E,0x0,0x49,0x4E,0x46
D:\Univ\Project\FFT\Programs\TESTs\ADC Tests\ADC Test V - 003 - double DMA - Keypad\List\at.asm(1930): warning: .cseg .db misalignment - padding zero byte
0009c2 0000      	.DB  0x0
                 
                 __GLOBAL_INI_TBL:
0009c3 0004      	.DW  0x04
0009c4 3a0d      	.DW  _abs_to_dac_coeff0
0009c5 12f4      	.DW  _0x4B*2
                 
0009c6 0004      	.DW  0x04
0009c7 3a11      	.DW  _abs_to_dac_coeff1
0009c8 12f8      	.DW  _0x4C*2
                 
0009c9 0003      	.DW  0x03
0009ca 3a19      	.DW  _oscope_div
0009cb 12fc      	.DW  _0x4D*2
                 
0009cc 0002      	.DW  0x02
0009cd 3a21      	.DW  __base_y_G100
0009ce 1378      	.DW  _0x2000003*2
                 
0009cf 0001      	.DW  0x01
0009d0 3a28      	.DW  __seed_G102
0009d1 137a      	.DW  _0x2040060*2
                 
                 _0xFFFFFFFF:
0009d2 0000      	.DW  0
                 
                 __RESET:
0009d3 94f8      	CLI
0009d4 27ee      	CLR  R30
0009d5 bfe8      	OUT  RAMPD,R30
0009d6 bfe9      	OUT  RAMPX,R30
0009d7 bfea      	OUT  RAMPY,R30
                 
                 ;MEMORY MAPPED EEPROM ACCESS IS USED
0009d8 91f0 01cc 	LDS  R31,NVM_CTRLB
0009da 60f8      	ORI  R31,0x08
0009db 93f0 01cc 	STS  NVM_CTRLB,R31
                 
                 ;INTERRUPT VECTORS ARE PLACED
                 ;AT THE START OF FLASH
0009dd edf8      	LDI  R31,0xD8
0009de bff4      	OUT  CCP,R31
0009df 93e0 00a2 	STS  PMIC_CTRL,R30
                 
                 ;NO EXTERNAL RAM IS USED
0009e1 93e0 0440 	STS  EBI_CTRL,R30
                 
                 ;DISABLE WATCHDOG
0009e3 91a0 0080 	LDS  R26,WDT_CTRL
0009e5 7fad      	CBR  R26,2
0009e6 60a1      	SBR  R26,1
0009e7 bff4      	OUT  CCP,R31
0009e8 93a0 0080 	STS  WDT_CTRL,R26
                 
                 ;CLEAR SRAM
0009ea e080      	LDI  R24,LOW(__CLEAR_SRAM_SIZE)
0009eb e290      	LDI  R25,HIGH(__CLEAR_SRAM_SIZE)
0009ec e0a0      	LDI  R26,LOW(__SRAM_START)
0009ed e2b0      	LDI  R27,HIGH(__SRAM_START)
                 __CLEAR_SRAM:
0009ee 93ed      	ST   X+,R30
0009ef 9701      	SBIW R24,1
0009f0 f7e9      	BRNE __CLEAR_SRAM
                 
                 ;GLOBAL VARIABLES INITIALIZATION
0009f1 e8e6      	LDI  R30,LOW(__GLOBAL_INI_TBL*2)
0009f2 e1f3      	LDI  R31,HIGH(__GLOBAL_INI_TBL*2)
                 __GLOBAL_INI_NEXT:
0009f3 9185      	LPM  R24,Z+
0009f4 9195      	LPM  R25,Z+
0009f5 9700      	SBIW R24,0
0009f6 f061      	BREQ __GLOBAL_INI_END
0009f7 91a5      	LPM  R26,Z+
0009f8 91b5      	LPM  R27,Z+
0009f9 9005      	LPM  R0,Z+
0009fa 9015      	LPM  R1,Z+
0009fb 01bf      	MOVW R22,R30
0009fc 01f0      	MOVW R30,R0
                 __GLOBAL_INI_LOOP:
0009fd 9005      	LPM  R0,Z+
0009fe 920d      	ST   X+,R0
0009ff 9701      	SBIW R24,1
000a00 f7e1      	BRNE __GLOBAL_INI_LOOP
000a01 01fb      	MOVW R30,R22
000a02 cff0      	RJMP __GLOBAL_INI_NEXT
                 __GLOBAL_INI_END:
                 
000a03 bf8b      	OUT  RAMPZ,R24
                 
                 ;GPIO0-GPIO15 INITIALIZATION
000a04 e0e0      	LDI  R30,__GPIO0_INIT
000a05 b9e0      	OUT  GPIO0,R30
                 	;__GPIO1_INIT = __GPIO0_INIT
000a06 b9e1      	OUT  GPIO1,R30
                 	;__GPIO2_INIT = __GPIO0_INIT
000a07 b9e2      	OUT  GPIO2,R30
                 	;__GPIO3_INIT = __GPIO0_INIT
000a08 b9e3      	OUT  GPIO3,R30
                 	;__GPIO4_INIT = __GPIO0_INIT
000a09 b9e4      	OUT  GPIO4,R30
                 	;__GPIO5_INIT = __GPIO0_INIT
000a0a b9e5      	OUT  GPIO5,R30
                 	;__GPIO6_INIT = __GPIO0_INIT
000a0b b9e6      	OUT  GPIO6,R30
                 	;__GPIO7_INIT = __GPIO0_INIT
000a0c b9e7      	OUT  GPIO7,R30
                 	;__GPIO8_INIT = __GPIO0_INIT
000a0d b9e8      	OUT  GPIO8,R30
                 	;__GPIO9_INIT = __GPIO0_INIT
000a0e b9e9      	OUT  GPIO9,R30
                 	;__GPIO10_INIT = __GPIO0_INIT
000a0f b9ea      	OUT  GPIO10,R30
                 	;__GPIO11_INIT = __GPIO0_INIT
000a10 b9eb      	OUT  GPIO11,R30
                 	;__GPIO12_INIT = __GPIO0_INIT
000a11 b9ec      	OUT  GPIO12,R30
                 	;__GPIO13_INIT = __GPIO0_INIT
000a12 b9ed      	OUT  GPIO13,R30
                 	;__GPIO14_INIT = __GPIO0_INIT
000a13 b9ee      	OUT  GPIO14,R30
                 	;__GPIO15_INIT = __GPIO0_INIT
000a14 b9ef      	OUT  GPIO15,R30
                 
                 ;GLOBAL REGISTER VARIABLES INITIALIZATION
                 	;__R2_INIT = __GPIO0_INIT
000a15 2e2e      	MOV  R2,R30
                 	;__R3_INIT = __GPIO0_INIT
000a16 2e3e      	MOV  R3,R30
                 	;__R4_INIT = __GPIO0_INIT
000a17 2e4e      	MOV  R4,R30
                 	;__R5_INIT = __GPIO0_INIT
000a18 2e5e      	MOV  R5,R30
                 	;__R6_INIT = __GPIO0_INIT
000a19 2e6e      	MOV  R6,R30
                 	;__R7_INIT = __GPIO0_INIT
000a1a 2e7e      	MOV  R7,R30
                 	;__R8_INIT = __GPIO0_INIT
000a1b 2e8e      	MOV  R8,R30
                 	;__R9_INIT = __GPIO0_INIT
000a1c 2e9e      	MOV  R9,R30
                 	;__R10_INIT = __GPIO0_INIT
000a1d 2eae      	MOV  R10,R30
000a1e e0e1      	LDI  R30,__R11_INIT
000a1f 2ebe      	MOV  R11,R30
000a20 e0e0      	LDI  R30,__R12_INIT
000a21 2ece      	MOV  R12,R30
                 	;__R13_INIT = __R12_INIT
000a22 2ede      	MOV  R13,R30
                 
                 ;HARDWARE STACK POINTER INITIALIZATION
000a23 efef      	LDI  R30,LOW(__SRAM_END-__HEAP_SIZE)
000a24 bfed      	OUT  SPL,R30
000a25 e3ef      	LDI  R30,HIGH(__SRAM_END-__HEAP_SIZE)
000a26 bfee      	OUT  SPH,R30
                 
                 ;DATA STACK POINTER INITIALIZATION
000a27 e0c0      	LDI  R28,LOW(__SRAM_START+__DSTACK_SIZE)
000a28 e2d8      	LDI  R29,HIGH(__SRAM_START+__DSTACK_SIZE)
                 
000a29 940c 1950 	JMP  _main
                 
                 	.ESEG
                 	.ORG 0
                 
                 	.DSEG
                 	.ORG 0x2800
                 
                 	.CSEG
                 ;/*****************************************************
                 ;This program was produced by the
                 ;CodeWizardAVR V2.05.3 Standard
                 ;Automatic Program Generator
                 ; Copyright 1998-2011 Pavel Haiduc, HP InfoTech s.r.l.
                 ;http://www.hpinfotech.com
                 ;
                 ;Project :
                 ;Version :
                 ;Date    : 1/23/2013
                 ;Author  : MzZ
                 ;Company : MzZ
                 ;Comments:
                 ;
                 ;
                 ;Chip type               : ATxmega128A1
                 ;Program type            : Application
                 ;AVR Core Clock frequency: 32.000000 MHz
                 ;Memory model            : Small
                 ;Data Stack size         : 2048
                 ;*****************************************************/
                 ;
                 ;// I/O Registers definitions
                 ;#include <io.h>
                 ;
                 ;// Delay functions
                 ;#include <delay.h>
                 ;
                 ;// Alphanumeric LCD functions
                 ;#include <alcd.h>
                 ;
                 ;#include <math.h>
                 ;#include <stdlib.h>
                 ;#include <stdio.h>
                 ;
                 ;// Declare your global variables here
                 ;
                 ;// System Clocks initialization
                 ;void system_clocks_init(void)
                 ; 0000 0028 {
                 
                 	.CSEG
                 _system_clocks_init:
                 ; 0000 0029 unsigned char n,s;
                 ; 0000 002A 
                 ; 0000 002B // Optimize for speed
                 ; 0000 002C #pragma optsize-
                 ; 0000 002D // Save interrupts enabled/disabled state
                 ; 0000 002E s=SREG;
000a2b 931a      	ST   -Y,R17
000a2c 930a      	ST   -Y,R16
                 ;	n -> R17
                 ;	s -> R16
000a2d b70f      	IN   R16,63
                 ; 0000 002F // Disable interrupts
                 ; 0000 0030 #asm("cli")
000a2e 94f8      	cli
                 ; 0000 0031 
                 ; 0000 0032 // External 16000.000 kHz oscillator initialization
                 ; 0000 0033 OSC.XOSCCTRL=OSC_FRQRANGE_12TO16_gc | OSC_XOSCSEL_XTAL_16KCLK_gc;
000a2f eceb      	LDI  R30,LOW(203)
000a30 93e0 0052 	STS  82,R30
                 ; 0000 0034 // Enable the external oscillator
                 ; 0000 0035 OSC.CTRL|=OSC_XOSCEN_bm;
000a32 91e0 0050 	LDS  R30,80
000a34 60e8      	ORI  R30,8
000a35 93e0 0050 	STS  80,R30
                 ; 0000 0036 
                 ; 0000 0037 // Wait for the external oscillator to stabilize
                 ; 0000 0038 while ((OSC.STATUS & OSC_XOSCRDY_bm)==0);
                 _0x3:
000a37 91e0 0051 	LDS  R30,81
000a39 70e8      	ANDI R30,LOW(0x8)
000a3a f3e1      	BREQ _0x3
                 ; 0000 0039 
                 ; 0000 003A // PLL initialization
                 ; 0000 003B // PLL clock cource: External Osc. or Clock
                 ; 0000 003C // PLL multiplication factor: 2
                 ; 0000 003D // PLL frequency: 32.000000 MHz
                 ; 0000 003E // Set the PLL clock source and multiplication factor
                 ; 0000 003F n=(OSC.PLLCTRL & (~(OSC_PLLSRC_gm | OSC_PLLFAC_gm))) |
                 ; 0000 0040 	OSC_PLLSRC_XOSC_gc | 2;
000a3b 91e0 0055 	LDS  R30,85
000a3d 72e0      	ANDI R30,LOW(0x20)
000a3e 6ce2      	ORI  R30,LOW(0xC2)
000a3f 2f1e      	MOV  R17,R30
                 ; 0000 0041 CCP=CCP_IOREG_gc;
000a40 ede8      	LDI  R30,LOW(216)
000a41 bfe4      	OUT  0x34,R30
                 ; 0000 0042 OSC.PLLCTRL=n;
000a42 9310 0055 	STS  85,R17
                 ; 0000 0043 // Enable the PLL
                 ; 0000 0044 OSC.CTRL|=OSC_PLLEN_bm;
000a44 91e0 0050 	LDS  R30,80
000a46 61e0      	ORI  R30,0x10
000a47 93e0 0050 	STS  80,R30
                 ; 0000 0045 
                 ; 0000 0046 // System Clock prescaler A division factor: 1
                 ; 0000 0047 // System Clock prescalers B & C division factors: B:1, C:1
                 ; 0000 0048 // ClkPer4: 32000.000 kHz
                 ; 0000 0049 // ClkPer2: 32000.000 kHz
                 ; 0000 004A // ClkPer:  32000.000 kHz
                 ; 0000 004B // ClkCPU:  32000.000 kHz
                 ; 0000 004C n=(CLK.PSCTRL & (~(CLK_PSADIV_gm | CLK_PSBCDIV1_bm | CLK_PSBCDIV0_bm))) |
                 ; 0000 004D 	CLK_PSADIV_1_gc | CLK_PSBCDIV_1_1_gc;
000a49 91e0 0041 	LDS  R30,65
000a4b 78e0      	ANDI R30,LOW(0x80)
000a4c 2f1e      	MOV  R17,R30
                 ; 0000 004E CCP=CCP_IOREG_gc;
000a4d ede8      	LDI  R30,LOW(216)
000a4e bfe4      	OUT  0x34,R30
                 ; 0000 004F CLK.PSCTRL=n;
000a4f 9310 0041 	STS  65,R17
                 ; 0000 0050 
                 ; 0000 0051 // Wait for the PLL to stabilize
                 ; 0000 0052 while ((OSC.STATUS & OSC_PLLRDY_bm)==0);
                 _0x6:
000a51 91e0 0051 	LDS  R30,81
000a53 71e0      	ANDI R30,LOW(0x10)
000a54 f3e1      	BREQ _0x6
                 ; 0000 0053 
                 ; 0000 0054 // Select the system clock source: Phase Locked Loop
                 ; 0000 0055 n=(CLK.CTRL & (~CLK_SCLKSEL_gm)) | CLK_SCLKSEL_PLL_gc;
000a55 91e0 0040 	LDS  R30,64
000a57 7fe8      	ANDI R30,LOW(0xF8)
000a58 60e4      	ORI  R30,4
000a59 2f1e      	MOV  R17,R30
                 ; 0000 0056 CCP=CCP_IOREG_gc;
000a5a ede8      	LDI  R30,LOW(216)
000a5b bfe4      	OUT  0x34,R30
                 ; 0000 0057 CLK.CTRL=n;
000a5c 9310 0040 	STS  64,R17
                 ; 0000 0058 
                 ; 0000 0059 // Disable the unused oscillators: 2 MHz, 32 MHz, internal 32 kHz
                 ; 0000 005A OSC.CTRL&= ~(OSC_RC2MEN_bm | OSC_RC32MEN_bm | OSC_RC32KEN_bm);
000a5e 91e0 0050 	LDS  R30,80
000a60 7fe8      	ANDI R30,LOW(0xF8)
000a61 93e0 0050 	STS  80,R30
                 ; 0000 005B 
                 ; 0000 005C // Peripheral Clock output: Disabled
                 ; 0000 005D PORTCFG.CLKEVOUT=(PORTCFG.CLKEVOUT & (~PORTCFG_CLKOUT_gm)) | PORTCFG_CLKOUT_OFF_gc;
000a63 91e0 00b4 	LDS  R30,180
000a65 7fec      	ANDI R30,LOW(0xFC)
000a66 93e0 00b4 	STS  180,R30
                 ; 0000 005E 
                 ; 0000 005F // Restore interrupts enabled/disabled state
                 ; 0000 0060 SREG=s;
000a68 bf0f      	OUT  0x3F,R16
                 ; 0000 0061 // Restore optimization for size if needed
                 ; 0000 0062 #pragma optsize_default
                 ; 0000 0063 }
000a69 c453      	RJMP _0x20C0015
                 ;
                 ;// Ports initialization
                 ;void ports_init(void)
                 ; 0000 0067 {
                 _ports_init:
                 ; 0000 0068 // PORTA initialization
                 ; 0000 0069 // OUT register
                 ; 0000 006A PORTA.OUT=0x00;
000a6a e0e0      	LDI  R30,LOW(0)
000a6b 93e0 0604 	STS  1540,R30
                 ; 0000 006B // Bit0: Input
                 ; 0000 006C // Bit1: Input
                 ; 0000 006D // Bit2: Input
                 ; 0000 006E // Bit3: Input
                 ; 0000 006F // Bit4: Input
                 ; 0000 0070 // Bit5: Input
                 ; 0000 0071 // Bit6: Input
                 ; 0000 0072 // Bit7: Input
                 ; 0000 0073 PORTA.DIR=0x00;
000a6d 93e0 0600 	STS  1536,R30
                 ; 0000 0074 // Bit0 Output/Pull configuration: Totempole/No
                 ; 0000 0075 // Bit0 Input/Sense configuration: Sense both edges
                 ; 0000 0076 // Bit0 inverted: Off
                 ; 0000 0077 // Bit0 slew rate limitation: Off
                 ; 0000 0078 PORTA.PIN0CTRL=PORT_OPC_TOTEM_gc | PORT_ISC_BOTHEDGES_gc;
000a6f 93e0 0610 	STS  1552,R30
                 ; 0000 0079 // Bit1 Output/Pull configuration: Totempole/No
                 ; 0000 007A // Bit1 Input/Sense configuration: Sense both edges
                 ; 0000 007B // Bit1 inverted: Off
                 ; 0000 007C // Bit1 slew rate limitation: Off
                 ; 0000 007D PORTA.PIN1CTRL=PORT_OPC_TOTEM_gc | PORT_ISC_BOTHEDGES_gc;
000a71 93e0 0611 	STS  1553,R30
                 ; 0000 007E // Bit2 Output/Pull configuration: Totempole/No
                 ; 0000 007F // Bit2 Input/Sense configuration: Sense both edges
                 ; 0000 0080 // Bit2 inverted: Off
                 ; 0000 0081 // Bit2 slew rate limitation: Off
                 ; 0000 0082 PORTA.PIN2CTRL=PORT_OPC_TOTEM_gc | PORT_ISC_BOTHEDGES_gc;
000a73 93e0 0612 	STS  1554,R30
                 ; 0000 0083 // Bit3 Output/Pull configuration: Totempole/No
                 ; 0000 0084 // Bit3 Input/Sense configuration: Sense both edges
                 ; 0000 0085 // Bit3 inverted: Off
                 ; 0000 0086 // Bit3 slew rate limitation: Off
                 ; 0000 0087 PORTA.PIN3CTRL=PORT_OPC_TOTEM_gc | PORT_ISC_BOTHEDGES_gc;
000a75 93e0 0613 	STS  1555,R30
                 ; 0000 0088 // Bit4 Output/Pull configuration: Totempole/No
                 ; 0000 0089 // Bit4 Input/Sense configuration: Sense both edges
                 ; 0000 008A // Bit4 inverted: Off
                 ; 0000 008B // Bit4 slew rate limitation: Off
                 ; 0000 008C PORTA.PIN4CTRL=PORT_OPC_TOTEM_gc | PORT_ISC_BOTHEDGES_gc;
000a77 93e0 0614 	STS  1556,R30
                 ; 0000 008D // Bit5 Output/Pull configuration: Totempole/No
                 ; 0000 008E // Bit5 Input/Sense configuration: Sense both edges
                 ; 0000 008F // Bit5 inverted: Off
                 ; 0000 0090 // Bit5 slew rate limitation: Off
                 ; 0000 0091 PORTA.PIN5CTRL=PORT_OPC_TOTEM_gc | PORT_ISC_BOTHEDGES_gc;
000a79 93e0 0615 	STS  1557,R30
                 ; 0000 0092 // Bit6 Output/Pull configuration: Totempole/No
                 ; 0000 0093 // Bit6 Input/Sense configuration: Sense both edges
                 ; 0000 0094 // Bit6 inverted: Off
                 ; 0000 0095 // Bit6 slew rate limitation: Off
                 ; 0000 0096 PORTA.PIN6CTRL=PORT_OPC_TOTEM_gc | PORT_ISC_BOTHEDGES_gc;
000a7b 93e0 0616 	STS  1558,R30
                 ; 0000 0097 // Bit7 Output/Pull configuration: Totempole/No
                 ; 0000 0098 // Bit7 Input/Sense configuration: Sense both edges
                 ; 0000 0099 // Bit7 inverted: Off
                 ; 0000 009A // Bit7 slew rate limitation: Off
                 ; 0000 009B PORTA.PIN7CTRL=PORT_OPC_TOTEM_gc | PORT_ISC_BOTHEDGES_gc;
000a7d 93e0 0617 	STS  1559,R30
                 ; 0000 009C // Interrupt 0 level: Disabled
                 ; 0000 009D // Interrupt 1 level: Disabled
                 ; 0000 009E PORTA.INTCTRL=(PORTA.INTCTRL & (~(PORT_INT1LVL_gm | PORT_INT0LVL_gm))) |
                 ; 0000 009F 	PORT_INT1LVL_OFF_gc | PORT_INT0LVL_OFF_gc;
000a7f 91e0 0609 	LDS  R30,1545
000a81 7fe0      	ANDI R30,LOW(0xF0)
000a82 93e0 0609 	STS  1545,R30
                 ; 0000 00A0 // Bit0 pin change interrupt 0: Off
                 ; 0000 00A1 // Bit1 pin change interrupt 0: Off
                 ; 0000 00A2 // Bit2 pin change interrupt 0: Off
                 ; 0000 00A3 // Bit3 pin change interrupt 0: Off
                 ; 0000 00A4 // Bit4 pin change interrupt 0: Off
                 ; 0000 00A5 // Bit5 pin change interrupt 0: Off
                 ; 0000 00A6 // Bit6 pin change interrupt 0: Off
                 ; 0000 00A7 // Bit7 pin change interrupt 0: Off
                 ; 0000 00A8 PORTA.INT0MASK=0x00;
000a84 e0e0      	LDI  R30,LOW(0)
000a85 93e0 060a 	STS  1546,R30
                 ; 0000 00A9 // Bit0 pin change interrupt 1: Off
                 ; 0000 00AA // Bit1 pin change interrupt 1: Off
                 ; 0000 00AB // Bit2 pin change interrupt 1: Off
                 ; 0000 00AC // Bit3 pin change interrupt 1: Off
                 ; 0000 00AD // Bit4 pin change interrupt 1: Off
                 ; 0000 00AE // Bit5 pin change interrupt 1: Off
                 ; 0000 00AF // Bit6 pin change interrupt 1: Off
                 ; 0000 00B0 // Bit7 pin change interrupt 1: Off
                 ; 0000 00B1 PORTA.INT1MASK=0x00;
000a87 93e0 060b 	STS  1547,R30
                 ; 0000 00B2 
                 ; 0000 00B3 // PORTB initialization
                 ; 0000 00B4 // OUT register
                 ; 0000 00B5 PORTB.OUT=0x00;
000a89 93e0 0624 	STS  1572,R30
                 ; 0000 00B6 // Bit0: Input
                 ; 0000 00B7 // Bit1: Input
                 ; 0000 00B8 // Bit2: Input
                 ; 0000 00B9 // Bit3: Input
                 ; 0000 00BA // Bit4: Input
                 ; 0000 00BB // Bit5: Input
                 ; 0000 00BC // Bit6: Input
                 ; 0000 00BD // Bit7: Input
                 ; 0000 00BE PORTB.DIR=0x00;
000a8b 93e0 0620 	STS  1568,R30
                 ; 0000 00BF // Bit0 Output/Pull configuration: Totempole/No
                 ; 0000 00C0 // Bit0 Input/Sense configuration: Sense both edges
                 ; 0000 00C1 // Bit0 inverted: Off
                 ; 0000 00C2 // Bit0 slew rate limitation: Off
                 ; 0000 00C3 PORTB.PIN0CTRL=PORT_OPC_TOTEM_gc | PORT_ISC_BOTHEDGES_gc;
000a8d 93e0 0630 	STS  1584,R30
                 ; 0000 00C4 // Bit1 Output/Pull configuration: Totempole/No
                 ; 0000 00C5 // Bit1 Input/Sense configuration: Sense both edges
                 ; 0000 00C6 // Bit1 inverted: Off
                 ; 0000 00C7 // Bit1 slew rate limitation: Off
                 ; 0000 00C8 PORTB.PIN1CTRL=PORT_OPC_TOTEM_gc | PORT_ISC_BOTHEDGES_gc;
000a8f 93e0 0631 	STS  1585,R30
                 ; 0000 00C9 // Bit2 Output/Pull configuration: Totempole/No
                 ; 0000 00CA // Bit2 Input/Sense configuration: Sense both edges
                 ; 0000 00CB // Bit2 inverted: Off
                 ; 0000 00CC // Bit2 slew rate limitation: Off
                 ; 0000 00CD PORTB.PIN2CTRL=PORT_OPC_TOTEM_gc | PORT_ISC_BOTHEDGES_gc;
000a91 93e0 0632 	STS  1586,R30
                 ; 0000 00CE // Bit3 Output/Pull configuration: Totempole/No
                 ; 0000 00CF // Bit3 Input/Sense configuration: Sense both edges
                 ; 0000 00D0 // Bit3 inverted: Off
                 ; 0000 00D1 // Bit3 slew rate limitation: Off
                 ; 0000 00D2 PORTB.PIN3CTRL=PORT_OPC_TOTEM_gc | PORT_ISC_BOTHEDGES_gc;
000a93 93e0 0633 	STS  1587,R30
                 ; 0000 00D3 // Bit4 Output/Pull configuration: Totempole/No
                 ; 0000 00D4 // Bit4 Input/Sense configuration: Sense both edges
                 ; 0000 00D5 // Bit4 inverted: Off
                 ; 0000 00D6 // Bit4 slew rate limitation: Off
                 ; 0000 00D7 PORTB.PIN4CTRL=PORT_OPC_TOTEM_gc | PORT_ISC_BOTHEDGES_gc;
000a95 93e0 0634 	STS  1588,R30
                 ; 0000 00D8 // Bit5 Output/Pull configuration: Totempole/No
                 ; 0000 00D9 // Bit5 Input/Sense configuration: Sense both edges
                 ; 0000 00DA // Bit5 inverted: Off
                 ; 0000 00DB // Bit5 slew rate limitation: Off
                 ; 0000 00DC PORTB.PIN5CTRL=PORT_OPC_TOTEM_gc | PORT_ISC_BOTHEDGES_gc;
000a97 93e0 0635 	STS  1589,R30
                 ; 0000 00DD // Bit6 Output/Pull configuration: Totempole/No
                 ; 0000 00DE // Bit6 Input/Sense configuration: Sense both edges
                 ; 0000 00DF // Bit6 inverted: Off
                 ; 0000 00E0 // Bit6 slew rate limitation: Off
                 ; 0000 00E1 PORTB.PIN6CTRL=PORT_OPC_TOTEM_gc | PORT_ISC_BOTHEDGES_gc;
000a99 93e0 0636 	STS  1590,R30
                 ; 0000 00E2 // Bit7 Output/Pull configuration: Totempole/No
                 ; 0000 00E3 // Bit7 Input/Sense configuration: Sense both edges
                 ; 0000 00E4 // Bit7 inverted: Off
                 ; 0000 00E5 // Bit7 slew rate limitation: Off
                 ; 0000 00E6 PORTB.PIN7CTRL=PORT_OPC_TOTEM_gc | PORT_ISC_BOTHEDGES_gc;
000a9b 93e0 0637 	STS  1591,R30
                 ; 0000 00E7 // Interrupt 0 level: Disabled
                 ; 0000 00E8 // Interrupt 1 level: Disabled
                 ; 0000 00E9 PORTB.INTCTRL=(PORTB.INTCTRL & (~(PORT_INT1LVL_gm | PORT_INT0LVL_gm))) |
                 ; 0000 00EA 	PORT_INT1LVL_OFF_gc | PORT_INT0LVL_OFF_gc;
000a9d 91e0 0629 	LDS  R30,1577
000a9f 7fe0      	ANDI R30,LOW(0xF0)
000aa0 93e0 0629 	STS  1577,R30
                 ; 0000 00EB // Bit0 pin change interrupt 0: Off
                 ; 0000 00EC // Bit1 pin change interrupt 0: Off
                 ; 0000 00ED // Bit2 pin change interrupt 0: Off
                 ; 0000 00EE // Bit3 pin change interrupt 0: Off
                 ; 0000 00EF // Bit4 pin change interrupt 0: Off
                 ; 0000 00F0 // Bit5 pin change interrupt 0: Off
                 ; 0000 00F1 // Bit6 pin change interrupt 0: Off
                 ; 0000 00F2 // Bit7 pin change interrupt 0: Off
                 ; 0000 00F3 PORTB.INT0MASK=0x00;
000aa2 e0e0      	LDI  R30,LOW(0)
000aa3 93e0 062a 	STS  1578,R30
                 ; 0000 00F4 // Bit0 pin change interrupt 1: Off
                 ; 0000 00F5 // Bit1 pin change interrupt 1: Off
                 ; 0000 00F6 // Bit2 pin change interrupt 1: Off
                 ; 0000 00F7 // Bit3 pin change interrupt 1: Off
                 ; 0000 00F8 // Bit4 pin change interrupt 1: Off
                 ; 0000 00F9 // Bit5 pin change interrupt 1: Off
                 ; 0000 00FA // Bit6 pin change interrupt 1: Off
                 ; 0000 00FB // Bit7 pin change interrupt 1: Off
                 ; 0000 00FC PORTB.INT1MASK=0x00;
000aa5 93e0 062b 	STS  1579,R30
                 ; 0000 00FD 
                 ; 0000 00FE // PORTC initialization
                 ; 0000 00FF // OUT register
                 ; 0000 0100 PORTC.OUT=0x00;
000aa7 93e0 0644 	STS  1604,R30
                 ; 0000 0101 // Bit0: Input
                 ; 0000 0102 // Bit1: Input
                 ; 0000 0103 // Bit2: Input
                 ; 0000 0104 // Bit3: Input
                 ; 0000 0105 // Bit4: Input
                 ; 0000 0106 // Bit5: Input
                 ; 0000 0107 // Bit6: Input
                 ; 0000 0108 // Bit7: Input
                 ; 0000 0109 PORTC.DIR=0x00;
000aa9 93e0 0640 	STS  1600,R30
                 ; 0000 010A // Bit0 Output/Pull configuration: Totempole/No
                 ; 0000 010B // Bit0 Input/Sense configuration: Sense both edges
                 ; 0000 010C // Bit0 inverted: Off
                 ; 0000 010D // Bit0 slew rate limitation: Off
                 ; 0000 010E PORTC.PIN0CTRL=PORT_OPC_TOTEM_gc | PORT_ISC_BOTHEDGES_gc;
000aab 93e0 0650 	STS  1616,R30
                 ; 0000 010F // Bit1 Output/Pull configuration: Totempole/No
                 ; 0000 0110 // Bit1 Input/Sense configuration: Sense both edges
                 ; 0000 0111 // Bit1 inverted: Off
                 ; 0000 0112 // Bit1 slew rate limitation: Off
                 ; 0000 0113 PORTC.PIN1CTRL=PORT_OPC_TOTEM_gc | PORT_ISC_BOTHEDGES_gc;
000aad 93e0 0651 	STS  1617,R30
                 ; 0000 0114 // Bit2 Output/Pull configuration: Totempole/No
                 ; 0000 0115 // Bit2 Input/Sense configuration: Sense both edges
                 ; 0000 0116 // Bit2 inverted: Off
                 ; 0000 0117 // Bit2 slew rate limitation: Off
                 ; 0000 0118 PORTC.PIN2CTRL=PORT_OPC_TOTEM_gc | PORT_ISC_BOTHEDGES_gc;
000aaf 93e0 0652 	STS  1618,R30
                 ; 0000 0119 // Bit3 Output/Pull configuration: Totempole/No
                 ; 0000 011A // Bit3 Input/Sense configuration: Sense both edges
                 ; 0000 011B // Bit3 inverted: Off
                 ; 0000 011C // Bit3 slew rate limitation: Off
                 ; 0000 011D PORTC.PIN3CTRL=PORT_OPC_TOTEM_gc | PORT_ISC_BOTHEDGES_gc;
000ab1 93e0 0653 	STS  1619,R30
                 ; 0000 011E // Bit4 Output/Pull configuration: Totempole/No
                 ; 0000 011F // Bit4 Input/Sense configuration: Sense both edges
                 ; 0000 0120 // Bit4 inverted: Off
                 ; 0000 0121 // Bit4 slew rate limitation: Off
                 ; 0000 0122 PORTC.PIN4CTRL=PORT_OPC_TOTEM_gc | PORT_ISC_BOTHEDGES_gc;
000ab3 93e0 0654 	STS  1620,R30
                 ; 0000 0123 // Bit5 Output/Pull configuration: Totempole/No
                 ; 0000 0124 // Bit5 Input/Sense configuration: Sense both edges
                 ; 0000 0125 // Bit5 inverted: Off
                 ; 0000 0126 // Bit5 slew rate limitation: Off
                 ; 0000 0127 PORTC.PIN5CTRL=PORT_OPC_TOTEM_gc | PORT_ISC_BOTHEDGES_gc;
000ab5 93e0 0655 	STS  1621,R30
                 ; 0000 0128 // Bit6 Output/Pull configuration: Totempole/No
                 ; 0000 0129 // Bit6 Input/Sense configuration: Sense both edges
                 ; 0000 012A // Bit6 inverted: Off
                 ; 0000 012B // Bit6 slew rate limitation: Off
                 ; 0000 012C PORTC.PIN6CTRL=PORT_OPC_TOTEM_gc | PORT_ISC_BOTHEDGES_gc;
000ab7 93e0 0656 	STS  1622,R30
                 ; 0000 012D // Bit7 Output/Pull configuration: Totempole/No
                 ; 0000 012E // Bit7 Input/Sense configuration: Sense both edges
                 ; 0000 012F // Bit7 inverted: Off
                 ; 0000 0130 // Bit7 slew rate limitation: Off
                 ; 0000 0131 PORTC.PIN7CTRL=PORT_OPC_TOTEM_gc | PORT_ISC_BOTHEDGES_gc;
000ab9 93e0 0657 	STS  1623,R30
                 ; 0000 0132 // Interrupt 0 level: Disabled
                 ; 0000 0133 // Interrupt 1 level: Disabled
                 ; 0000 0134 PORTC.INTCTRL=(PORTC.INTCTRL & (~(PORT_INT1LVL_gm | PORT_INT0LVL_gm))) |
                 ; 0000 0135 	PORT_INT1LVL_OFF_gc | PORT_INT0LVL_OFF_gc;
000abb 91e0 0649 	LDS  R30,1609
000abd 7fe0      	ANDI R30,LOW(0xF0)
000abe 93e0 0649 	STS  1609,R30
                 ; 0000 0136 // Bit0 pin change interrupt 0: Off
                 ; 0000 0137 // Bit1 pin change interrupt 0: Off
                 ; 0000 0138 // Bit2 pin change interrupt 0: Off
                 ; 0000 0139 // Bit3 pin change interrupt 0: Off
                 ; 0000 013A // Bit4 pin change interrupt 0: Off
                 ; 0000 013B // Bit5 pin change interrupt 0: Off
                 ; 0000 013C // Bit6 pin change interrupt 0: Off
                 ; 0000 013D // Bit7 pin change interrupt 0: Off
                 ; 0000 013E PORTC.INT0MASK=0x00;
000ac0 e0e0      	LDI  R30,LOW(0)
000ac1 93e0 064a 	STS  1610,R30
                 ; 0000 013F // Bit0 pin change interrupt 1: Off
                 ; 0000 0140 // Bit1 pin change interrupt 1: Off
                 ; 0000 0141 // Bit2 pin change interrupt 1: Off
                 ; 0000 0142 // Bit3 pin change interrupt 1: Off
                 ; 0000 0143 // Bit4 pin change interrupt 1: Off
                 ; 0000 0144 // Bit5 pin change interrupt 1: Off
                 ; 0000 0145 // Bit6 pin change interrupt 1: Off
                 ; 0000 0146 // Bit7 pin change interrupt 1: Off
                 ; 0000 0147 PORTC.INT1MASK=0x00;
000ac3 93e0 064b 	STS  1611,R30
                 ; 0000 0148 
                 ; 0000 0149 // PORTD initialization
                 ; 0000 014A // OUT register
                 ; 0000 014B PORTD.OUT=0x0F;
000ac5 e0ef      	LDI  R30,LOW(15)
000ac6 93e0 0664 	STS  1636,R30
                 ; 0000 014C // Bit0: Output
                 ; 0000 014D // Bit1: Output
                 ; 0000 014E // Bit2: Output
                 ; 0000 014F // Bit3: Output
                 ; 0000 0150 // Bit4: Input
                 ; 0000 0151 // Bit5: Input
                 ; 0000 0152 // Bit6: Input
                 ; 0000 0153 // Bit7: Input
                 ; 0000 0154 PORTD.DIR=0x0F;
000ac8 93e0 0660 	STS  1632,R30
                 ; 0000 0155 // Bit0 Output/Pull configuration: Totempole/Pull-down (on input)
                 ; 0000 0156 // Bit0 Input/Sense configuration: Sense both edges
                 ; 0000 0157 // Bit0 inverted: Off
                 ; 0000 0158 // Bit0 slew rate limitation: Off
                 ; 0000 0159 PORTD.PIN0CTRL=PORT_OPC_PULLDOWN_gc | PORT_ISC_BOTHEDGES_gc;
000aca e1e0      	LDI  R30,LOW(16)
000acb 93e0 0670 	STS  1648,R30
                 ; 0000 015A // Bit1 Output/Pull configuration: Totempole/Pull-down (on input)
                 ; 0000 015B // Bit1 Input/Sense configuration: Sense both edges
                 ; 0000 015C // Bit1 inverted: Off
                 ; 0000 015D // Bit1 slew rate limitation: Off
                 ; 0000 015E PORTD.PIN1CTRL=PORT_OPC_PULLDOWN_gc | PORT_ISC_BOTHEDGES_gc;
000acd 93e0 0671 	STS  1649,R30
                 ; 0000 015F // Bit2 Output/Pull configuration: Totempole/Pull-down (on input)
                 ; 0000 0160 // Bit2 Input/Sense configuration: Sense both edges
                 ; 0000 0161 // Bit2 inverted: Off
                 ; 0000 0162 // Bit2 slew rate limitation: Off
                 ; 0000 0163 PORTD.PIN2CTRL=PORT_OPC_PULLDOWN_gc | PORT_ISC_BOTHEDGES_gc;
000acf 93e0 0672 	STS  1650,R30
                 ; 0000 0164 // Bit3 Output/Pull configuration: Totempole/Pull-down (on input)
                 ; 0000 0165 // Bit3 Input/Sense configuration: Sense both edges
                 ; 0000 0166 // Bit3 inverted: Off
                 ; 0000 0167 // Bit3 slew rate limitation: Off
                 ; 0000 0168 PORTD.PIN3CTRL=PORT_OPC_PULLDOWN_gc | PORT_ISC_BOTHEDGES_gc;
000ad1 93e0 0673 	STS  1651,R30
                 ; 0000 0169 // Bit4 Output/Pull configuration: Totempole/Pull-down (on input)
                 ; 0000 016A // Bit4 Input/Sense configuration: Sense rising edge
                 ; 0000 016B // Bit4 inverted: Off
                 ; 0000 016C // Bit4 slew rate limitation: Off
                 ; 0000 016D PORTD.PIN4CTRL=PORT_OPC_PULLDOWN_gc | PORT_ISC_RISING_gc;
000ad3 e1e1      	LDI  R30,LOW(17)
000ad4 93e0 0674 	STS  1652,R30
                 ; 0000 016E // Bit5 Output/Pull configuration: Totempole/Pull-down (on input)
                 ; 0000 016F // Bit5 Input/Sense configuration: Sense rising edge
                 ; 0000 0170 // Bit5 inverted: Off
                 ; 0000 0171 // Bit5 slew rate limitation: Off
                 ; 0000 0172 PORTD.PIN5CTRL=PORT_OPC_PULLDOWN_gc | PORT_ISC_RISING_gc;
000ad6 93e0 0675 	STS  1653,R30
                 ; 0000 0173 // Bit6 Output/Pull configuration: Totempole/Pull-down (on input)
                 ; 0000 0174 // Bit6 Input/Sense configuration: Sense rising edge
                 ; 0000 0175 // Bit6 inverted: Off
                 ; 0000 0176 // Bit6 slew rate limitation: Off
                 ; 0000 0177 PORTD.PIN6CTRL=PORT_OPC_PULLDOWN_gc | PORT_ISC_RISING_gc;
000ad8 93e0 0676 	STS  1654,R30
                 ; 0000 0178 // Bit7 Output/Pull configuration: Totempole/Pull-down (on input)
                 ; 0000 0179 // Bit7 Input/Sense configuration: Sense rising edge
                 ; 0000 017A // Bit7 inverted: Off
                 ; 0000 017B // Bit7 slew rate limitation: Off
                 ; 0000 017C PORTD.PIN7CTRL=PORT_OPC_PULLDOWN_gc | PORT_ISC_RISING_gc;
000ada 93e0 0677 	STS  1655,R30
                 ; 0000 017D // Interrupt 0 level: High
                 ; 0000 017E // Interrupt 1 level: Disabled
                 ; 0000 017F PORTD.INTCTRL=(PORTD.INTCTRL & (~(PORT_INT1LVL_gm | PORT_INT0LVL_gm))) |
                 ; 0000 0180 	PORT_INT1LVL_OFF_gc | PORT_INT0LVL_HI_gc;
000adc 91e0 0669 	LDS  R30,1641
000ade 7fe0      	ANDI R30,LOW(0xF0)
000adf 60e3      	ORI  R30,LOW(0x3)
000ae0 93e0 0669 	STS  1641,R30
                 ; 0000 0181 // Bit0 pin change interrupt 0: Off
                 ; 0000 0182 // Bit1 pin change interrupt 0: Off
                 ; 0000 0183 // Bit2 pin change interrupt 0: Off
                 ; 0000 0184 // Bit3 pin change interrupt 0: Off
                 ; 0000 0185 // Bit4 pin change interrupt 0: On
                 ; 0000 0186 // Bit5 pin change interrupt 0: On
                 ; 0000 0187 // Bit6 pin change interrupt 0: On
                 ; 0000 0188 // Bit7 pin change interrupt 0: On
                 ; 0000 0189 PORTD.INT0MASK=0xF0;
000ae2 efe0      	LDI  R30,LOW(240)
000ae3 93e0 066a 	STS  1642,R30
                 ; 0000 018A // Bit0 pin change interrupt 1: Off
                 ; 0000 018B // Bit1 pin change interrupt 1: Off
                 ; 0000 018C // Bit2 pin change interrupt 1: Off
                 ; 0000 018D // Bit3 pin change interrupt 1: Off
                 ; 0000 018E // Bit4 pin change interrupt 1: Off
                 ; 0000 018F // Bit5 pin change interrupt 1: Off
                 ; 0000 0190 // Bit6 pin change interrupt 1: Off
                 ; 0000 0191 // Bit7 pin change interrupt 1: Off
                 ; 0000 0192 PORTD.INT1MASK=0x00;
000ae5 e0e0      	LDI  R30,LOW(0)
000ae6 93e0 066b 	STS  1643,R30
                 ; 0000 0193 
                 ; 0000 0194 // PORTE initialization
                 ; 0000 0195 // OUT register
                 ; 0000 0196 PORTE.OUT=0x00;
000ae8 93e0 0684 	STS  1668,R30
                 ; 0000 0197 // Bit0: Input
                 ; 0000 0198 // Bit1: Input
                 ; 0000 0199 // Bit2: Input
                 ; 0000 019A // Bit3: Input
                 ; 0000 019B // Bit4: Input
                 ; 0000 019C // Bit5: Input
                 ; 0000 019D // Bit6: Input
                 ; 0000 019E // Bit7: Input
                 ; 0000 019F PORTE.DIR=0x00;
000aea 93e0 0680 	STS  1664,R30
                 ; 0000 01A0 // Bit0 Output/Pull configuration: Totempole/No
                 ; 0000 01A1 // Bit0 Input/Sense configuration: Sense both edges
                 ; 0000 01A2 // Bit0 inverted: Off
                 ; 0000 01A3 // Bit0 slew rate limitation: Off
                 ; 0000 01A4 PORTE.PIN0CTRL=PORT_OPC_TOTEM_gc | PORT_ISC_BOTHEDGES_gc;
000aec 93e0 0690 	STS  1680,R30
                 ; 0000 01A5 // Bit1 Output/Pull configuration: Totempole/No
                 ; 0000 01A6 // Bit1 Input/Sense configuration: Sense both edges
                 ; 0000 01A7 // Bit1 inverted: Off
                 ; 0000 01A8 // Bit1 slew rate limitation: Off
                 ; 0000 01A9 PORTE.PIN1CTRL=PORT_OPC_TOTEM_gc | PORT_ISC_BOTHEDGES_gc;
000aee 93e0 0691 	STS  1681,R30
                 ; 0000 01AA // Bit2 Output/Pull configuration: Totempole/No
                 ; 0000 01AB // Bit2 Input/Sense configuration: Sense both edges
                 ; 0000 01AC // Bit2 inverted: Off
                 ; 0000 01AD // Bit2 slew rate limitation: Off
                 ; 0000 01AE PORTE.PIN2CTRL=PORT_OPC_TOTEM_gc | PORT_ISC_BOTHEDGES_gc;
000af0 93e0 0692 	STS  1682,R30
                 ; 0000 01AF // Bit3 Output/Pull configuration: Totempole/No
                 ; 0000 01B0 // Bit3 Input/Sense configuration: Sense both edges
                 ; 0000 01B1 // Bit3 inverted: Off
                 ; 0000 01B2 // Bit3 slew rate limitation: Off
                 ; 0000 01B3 PORTE.PIN3CTRL=PORT_OPC_TOTEM_gc | PORT_ISC_BOTHEDGES_gc;
000af2 93e0 0693 	STS  1683,R30
                 ; 0000 01B4 // Bit4 Output/Pull configuration: Totempole/No
                 ; 0000 01B5 // Bit4 Input/Sense configuration: Sense both edges
                 ; 0000 01B6 // Bit4 inverted: Off
                 ; 0000 01B7 // Bit4 slew rate limitation: Off
                 ; 0000 01B8 PORTE.PIN4CTRL=PORT_OPC_TOTEM_gc | PORT_ISC_BOTHEDGES_gc;
000af4 93e0 0694 	STS  1684,R30
                 ; 0000 01B9 // Bit5 Output/Pull configuration: Totempole/No
                 ; 0000 01BA // Bit5 Input/Sense configuration: Sense both edges
                 ; 0000 01BB // Bit5 inverted: Off
                 ; 0000 01BC // Bit5 slew rate limitation: Off
                 ; 0000 01BD PORTE.PIN5CTRL=PORT_OPC_TOTEM_gc | PORT_ISC_BOTHEDGES_gc;
000af6 93e0 0695 	STS  1685,R30
                 ; 0000 01BE // Bit6 Output/Pull configuration: Totempole/No
                 ; 0000 01BF // Bit6 Input/Sense configuration: Sense both edges
                 ; 0000 01C0 // Bit6 inverted: Off
                 ; 0000 01C1 // Bit6 slew rate limitation: Off
                 ; 0000 01C2 PORTE.PIN6CTRL=PORT_OPC_TOTEM_gc | PORT_ISC_BOTHEDGES_gc;
000af8 93e0 0696 	STS  1686,R30
                 ; 0000 01C3 // Bit7 Output/Pull configuration: Totempole/No
                 ; 0000 01C4 // Bit7 Input/Sense configuration: Sense both edges
                 ; 0000 01C5 // Bit7 inverted: Off
                 ; 0000 01C6 // Bit7 slew rate limitation: Off
                 ; 0000 01C7 PORTE.PIN7CTRL=PORT_OPC_TOTEM_gc | PORT_ISC_BOTHEDGES_gc;
000afa 93e0 0697 	STS  1687,R30
                 ; 0000 01C8 // Interrupt 0 level: Disabled
                 ; 0000 01C9 // Interrupt 1 level: Disabled
                 ; 0000 01CA PORTE.INTCTRL=(PORTE.INTCTRL & (~(PORT_INT1LVL_gm | PORT_INT0LVL_gm))) |
                 ; 0000 01CB 	PORT_INT1LVL_OFF_gc | PORT_INT0LVL_OFF_gc;
000afc 91e0 0689 	LDS  R30,1673
000afe 7fe0      	ANDI R30,LOW(0xF0)
000aff 93e0 0689 	STS  1673,R30
                 ; 0000 01CC // Bit0 pin change interrupt 0: Off
                 ; 0000 01CD // Bit1 pin change interrupt 0: Off
                 ; 0000 01CE // Bit2 pin change interrupt 0: Off
                 ; 0000 01CF // Bit3 pin change interrupt 0: Off
                 ; 0000 01D0 // Bit4 pin change interrupt 0: Off
                 ; 0000 01D1 // Bit5 pin change interrupt 0: Off
                 ; 0000 01D2 // Bit6 pin change interrupt 0: Off
                 ; 0000 01D3 // Bit7 pin change interrupt 0: Off
                 ; 0000 01D4 PORTE.INT0MASK=0x00;
000b01 e0e0      	LDI  R30,LOW(0)
000b02 93e0 068a 	STS  1674,R30
                 ; 0000 01D5 // Bit0 pin change interrupt 1: Off
                 ; 0000 01D6 // Bit1 pin change interrupt 1: Off
                 ; 0000 01D7 // Bit2 pin change interrupt 1: Off
                 ; 0000 01D8 // Bit3 pin change interrupt 1: Off
                 ; 0000 01D9 // Bit4 pin change interrupt 1: Off
                 ; 0000 01DA // Bit5 pin change interrupt 1: Off
                 ; 0000 01DB // Bit6 pin change interrupt 1: Off
                 ; 0000 01DC // Bit7 pin change interrupt 1: Off
                 ; 0000 01DD PORTE.INT1MASK=0x00;
000b04 93e0 068b 	STS  1675,R30
                 ; 0000 01DE 
                 ; 0000 01DF // PORTF initialization
                 ; 0000 01E0 // OUT register
                 ; 0000 01E1 PORTF.OUT=0x08;
000b06 e0e8      	LDI  R30,LOW(8)
000b07 93e0 06a4 	STS  1700,R30
                 ; 0000 01E2 // Bit0: Input
                 ; 0000 01E3 // Bit1: Input
                 ; 0000 01E4 // Bit2: Input
                 ; 0000 01E5 // Bit3: Output
                 ; 0000 01E6 // Bit4: Input
                 ; 0000 01E7 // Bit5: Input
                 ; 0000 01E8 // Bit6: Input
                 ; 0000 01E9 // Bit7: Input
                 ; 0000 01EA PORTF.DIR=0x08;
000b09 93e0 06a0 	STS  1696,R30
                 ; 0000 01EB // Bit0 Output/Pull configuration: Totempole/No
                 ; 0000 01EC // Bit0 Input/Sense configuration: Sense both edges
                 ; 0000 01ED // Bit0 inverted: Off
                 ; 0000 01EE // Bit0 slew rate limitation: Off
                 ; 0000 01EF PORTF.PIN0CTRL=PORT_OPC_TOTEM_gc | PORT_ISC_BOTHEDGES_gc;
000b0b e0e0      	LDI  R30,LOW(0)
000b0c 93e0 06b0 	STS  1712,R30
                 ; 0000 01F0 // Bit1 Output/Pull configuration: Totempole/No
                 ; 0000 01F1 // Bit1 Input/Sense configuration: Sense both edges
                 ; 0000 01F2 // Bit1 inverted: Off
                 ; 0000 01F3 // Bit1 slew rate limitation: Off
                 ; 0000 01F4 PORTF.PIN1CTRL=PORT_OPC_TOTEM_gc | PORT_ISC_BOTHEDGES_gc;
000b0e 93e0 06b1 	STS  1713,R30
                 ; 0000 01F5 // Bit2 Output/Pull configuration: Totempole/No
                 ; 0000 01F6 // Bit2 Input/Sense configuration: Sense both edges
                 ; 0000 01F7 // Bit2 inverted: Off
                 ; 0000 01F8 // Bit2 slew rate limitation: Off
                 ; 0000 01F9 PORTF.PIN2CTRL=PORT_OPC_TOTEM_gc | PORT_ISC_BOTHEDGES_gc;
000b10 93e0 06b2 	STS  1714,R30
                 ; 0000 01FA // Bit3 Output/Pull configuration: Totempole/No
                 ; 0000 01FB // Bit3 Input/Sense configuration: Sense both edges
                 ; 0000 01FC // Bit3 inverted: Off
                 ; 0000 01FD // Bit3 slew rate limitation: Off
                 ; 0000 01FE PORTF.PIN3CTRL=PORT_OPC_TOTEM_gc | PORT_ISC_BOTHEDGES_gc;
000b12 93e0 06b3 	STS  1715,R30
                 ; 0000 01FF // Bit4 Output/Pull configuration: Totempole/No
                 ; 0000 0200 // Bit4 Input/Sense configuration: Sense both edges
                 ; 0000 0201 // Bit4 inverted: Off
                 ; 0000 0202 // Bit4 slew rate limitation: Off
                 ; 0000 0203 PORTF.PIN4CTRL=PORT_OPC_TOTEM_gc | PORT_ISC_BOTHEDGES_gc;
000b14 93e0 06b4 	STS  1716,R30
                 ; 0000 0204 // Bit5 Output/Pull configuration: Totempole/No
                 ; 0000 0205 // Bit5 Input/Sense configuration: Sense both edges
                 ; 0000 0206 // Bit5 inverted: Off
                 ; 0000 0207 // Bit5 slew rate limitation: Off
                 ; 0000 0208 PORTF.PIN5CTRL=PORT_OPC_TOTEM_gc | PORT_ISC_BOTHEDGES_gc;
000b16 93e0 06b5 	STS  1717,R30
                 ; 0000 0209 // Bit6 Output/Pull configuration: Totempole/No
                 ; 0000 020A // Bit6 Input/Sense configuration: Sense both edges
                 ; 0000 020B // Bit6 inverted: Off
                 ; 0000 020C // Bit6 slew rate limitation: Off
                 ; 0000 020D PORTF.PIN6CTRL=PORT_OPC_TOTEM_gc | PORT_ISC_BOTHEDGES_gc;
000b18 93e0 06b6 	STS  1718,R30
                 ; 0000 020E // Bit7 Output/Pull configuration: Totempole/No
                 ; 0000 020F // Bit7 Input/Sense configuration: Sense both edges
                 ; 0000 0210 // Bit7 inverted: Off
                 ; 0000 0211 // Bit7 slew rate limitation: Off
                 ; 0000 0212 PORTF.PIN7CTRL=PORT_OPC_TOTEM_gc | PORT_ISC_BOTHEDGES_gc;
000b1a 93e0 06b7 	STS  1719,R30
                 ; 0000 0213 // Interrupt 0 level: Disabled
                 ; 0000 0214 // Interrupt 1 level: Disabled
                 ; 0000 0215 PORTF.INTCTRL=(PORTF.INTCTRL & (~(PORT_INT1LVL_gm | PORT_INT0LVL_gm))) |
                 ; 0000 0216 	PORT_INT1LVL_OFF_gc | PORT_INT0LVL_OFF_gc;
000b1c 91e0 06a9 	LDS  R30,1705
000b1e 7fe0      	ANDI R30,LOW(0xF0)
000b1f 93e0 06a9 	STS  1705,R30
                 ; 0000 0217 // Bit0 pin change interrupt 0: Off
                 ; 0000 0218 // Bit1 pin change interrupt 0: Off
                 ; 0000 0219 // Bit2 pin change interrupt 0: Off
                 ; 0000 021A // Bit3 pin change interrupt 0: Off
                 ; 0000 021B // Bit4 pin change interrupt 0: Off
                 ; 0000 021C // Bit5 pin change interrupt 0: Off
                 ; 0000 021D // Bit6 pin change interrupt 0: Off
                 ; 0000 021E // Bit7 pin change interrupt 0: Off
                 ; 0000 021F PORTF.INT0MASK=0x00;
000b21 e0e0      	LDI  R30,LOW(0)
000b22 93e0 06aa 	STS  1706,R30
                 ; 0000 0220 // Bit0 pin change interrupt 1: Off
                 ; 0000 0221 // Bit1 pin change interrupt 1: Off
                 ; 0000 0222 // Bit2 pin change interrupt 1: Off
                 ; 0000 0223 // Bit3 pin change interrupt 1: Off
                 ; 0000 0224 // Bit4 pin change interrupt 1: Off
                 ; 0000 0225 // Bit5 pin change interrupt 1: Off
                 ; 0000 0226 // Bit6 pin change interrupt 1: Off
                 ; 0000 0227 // Bit7 pin change interrupt 1: Off
                 ; 0000 0228 PORTF.INT1MASK=0x00;
000b24 93e0 06ab 	STS  1707,R30
                 ; 0000 0229 
                 ; 0000 022A // PORTH initialization
                 ; 0000 022B // OUT register
                 ; 0000 022C PORTH.OUT=0x00;
000b26 93e0 06e4 	STS  1764,R30
                 ; 0000 022D // Bit0: Output
                 ; 0000 022E // Bit1: Output
                 ; 0000 022F // Bit2: Output
                 ; 0000 0230 // Bit3: Output
                 ; 0000 0231 // Bit4: Output
                 ; 0000 0232 // Bit5: Output
                 ; 0000 0233 // Bit6: Output
                 ; 0000 0234 // Bit7: Output
                 ; 0000 0235 PORTH.DIR=0xFF;
000b28 efef      	LDI  R30,LOW(255)
000b29 93e0 06e0 	STS  1760,R30
                 ; 0000 0236 // Bit0 Output/Pull configuration: Totempole/No
                 ; 0000 0237 // Bit0 Input/Sense configuration: Sense both edges
                 ; 0000 0238 // Bit0 inverted: Off
                 ; 0000 0239 // Bit0 slew rate limitation: Off
                 ; 0000 023A PORTH.PIN0CTRL=PORT_OPC_TOTEM_gc | PORT_ISC_BOTHEDGES_gc;
000b2b e0e0      	LDI  R30,LOW(0)
000b2c 93e0 06f0 	STS  1776,R30
                 ; 0000 023B // Bit1 Output/Pull configuration: Totempole/No
                 ; 0000 023C // Bit1 Input/Sense configuration: Sense both edges
                 ; 0000 023D // Bit1 inverted: Off
                 ; 0000 023E // Bit1 slew rate limitation: Off
                 ; 0000 023F PORTH.PIN1CTRL=PORT_OPC_TOTEM_gc | PORT_ISC_BOTHEDGES_gc;
000b2e 93e0 06f1 	STS  1777,R30
                 ; 0000 0240 // Bit2 Output/Pull configuration: Totempole/No
                 ; 0000 0241 // Bit2 Input/Sense configuration: Sense both edges
                 ; 0000 0242 // Bit2 inverted: Off
                 ; 0000 0243 // Bit2 slew rate limitation: Off
                 ; 0000 0244 PORTH.PIN2CTRL=PORT_OPC_TOTEM_gc | PORT_ISC_BOTHEDGES_gc;
000b30 93e0 06f2 	STS  1778,R30
                 ; 0000 0245 // Bit3 Output/Pull configuration: Totempole/No
                 ; 0000 0246 // Bit3 Input/Sense configuration: Sense both edges
                 ; 0000 0247 // Bit3 inverted: Off
                 ; 0000 0248 // Bit3 slew rate limitation: Off
                 ; 0000 0249 PORTH.PIN3CTRL=PORT_OPC_TOTEM_gc | PORT_ISC_BOTHEDGES_gc;
000b32 93e0 06f3 	STS  1779,R30
                 ; 0000 024A // Bit4 Output/Pull configuration: Totempole/No
                 ; 0000 024B // Bit4 Input/Sense configuration: Sense both edges
                 ; 0000 024C // Bit4 inverted: Off
                 ; 0000 024D // Bit4 slew rate limitation: Off
                 ; 0000 024E PORTH.PIN4CTRL=PORT_OPC_TOTEM_gc | PORT_ISC_BOTHEDGES_gc;
000b34 93e0 06f4 	STS  1780,R30
                 ; 0000 024F // Bit5 Output/Pull configuration: Totempole/No
                 ; 0000 0250 // Bit5 Input/Sense configuration: Sense both edges
                 ; 0000 0251 // Bit5 inverted: Off
                 ; 0000 0252 // Bit5 slew rate limitation: Off
                 ; 0000 0253 PORTH.PIN5CTRL=PORT_OPC_TOTEM_gc | PORT_ISC_BOTHEDGES_gc;
000b36 93e0 06f5 	STS  1781,R30
                 ; 0000 0254 // Bit6 Output/Pull configuration: Totempole/No
                 ; 0000 0255 // Bit6 Input/Sense configuration: Sense both edges
                 ; 0000 0256 // Bit6 inverted: Off
                 ; 0000 0257 // Bit6 slew rate limitation: Off
                 ; 0000 0258 PORTH.PIN6CTRL=PORT_OPC_TOTEM_gc | PORT_ISC_BOTHEDGES_gc;
000b38 93e0 06f6 	STS  1782,R30
                 ; 0000 0259 // Bit7 Output/Pull configuration: Totempole/No
                 ; 0000 025A // Bit7 Input/Sense configuration: Sense both edges
                 ; 0000 025B // Bit7 inverted: Off
                 ; 0000 025C // Bit7 slew rate limitation: Off
                 ; 0000 025D PORTH.PIN7CTRL=PORT_OPC_TOTEM_gc | PORT_ISC_BOTHEDGES_gc;
000b3a 93e0 06f7 	STS  1783,R30
                 ; 0000 025E // Interrupt 0 level: Disabled
                 ; 0000 025F // Interrupt 1 level: Disabled
                 ; 0000 0260 PORTH.INTCTRL=(PORTH.INTCTRL & (~(PORT_INT1LVL_gm | PORT_INT0LVL_gm))) |
                 ; 0000 0261 	PORT_INT1LVL_OFF_gc | PORT_INT0LVL_OFF_gc;
000b3c 91e0 06e9 	LDS  R30,1769
000b3e 7fe0      	ANDI R30,LOW(0xF0)
000b3f 93e0 06e9 	STS  1769,R30
                 ; 0000 0262 // Bit0 pin change interrupt 0: Off
                 ; 0000 0263 // Bit1 pin change interrupt 0: Off
                 ; 0000 0264 // Bit2 pin change interrupt 0: Off
                 ; 0000 0265 // Bit3 pin change interrupt 0: Off
                 ; 0000 0266 // Bit4 pin change interrupt 0: Off
                 ; 0000 0267 // Bit5 pin change interrupt 0: Off
                 ; 0000 0268 // Bit6 pin change interrupt 0: Off
                 ; 0000 0269 // Bit7 pin change interrupt 0: Off
                 ; 0000 026A PORTH.INT0MASK=0x00;
000b41 e0e0      	LDI  R30,LOW(0)
000b42 93e0 06ea 	STS  1770,R30
                 ; 0000 026B // Bit0 pin change interrupt 1: Off
                 ; 0000 026C // Bit1 pin change interrupt 1: Off
                 ; 0000 026D // Bit2 pin change interrupt 1: Off
                 ; 0000 026E // Bit3 pin change interrupt 1: Off
                 ; 0000 026F // Bit4 pin change interrupt 1: Off
                 ; 0000 0270 // Bit5 pin change interrupt 1: Off
                 ; 0000 0271 // Bit6 pin change interrupt 1: Off
                 ; 0000 0272 // Bit7 pin change interrupt 1: Off
                 ; 0000 0273 PORTH.INT1MASK=0x00;
000b44 93e0 06eb 	STS  1771,R30
                 ; 0000 0274 
                 ; 0000 0275 // PORTJ initialization
                 ; 0000 0276 // OUT register
                 ; 0000 0277 PORTJ.OUT=0x00;
000b46 93e0 0704 	STS  1796,R30
                 ; 0000 0278 // Bit0: Output
                 ; 0000 0279 // Bit1: Output
                 ; 0000 027A // Bit2: Output
                 ; 0000 027B // Bit3: Output
                 ; 0000 027C // Bit4: Output
                 ; 0000 027D // Bit5: Output
                 ; 0000 027E // Bit6: Output
                 ; 0000 027F // Bit7: Output
                 ; 0000 0280 PORTJ.DIR=0xFF;
000b48 efef      	LDI  R30,LOW(255)
000b49 93e0 0700 	STS  1792,R30
                 ; 0000 0281 // Bit0 Output/Pull configuration: Totempole/No
                 ; 0000 0282 // Bit0 Input/Sense configuration: Sense both edges
                 ; 0000 0283 // Bit0 inverted: Off
                 ; 0000 0284 // Bit0 slew rate limitation: Off
                 ; 0000 0285 PORTJ.PIN0CTRL=PORT_OPC_TOTEM_gc | PORT_ISC_BOTHEDGES_gc;
000b4b e0e0      	LDI  R30,LOW(0)
000b4c 93e0 0710 	STS  1808,R30
                 ; 0000 0286 // Bit1 Output/Pull configuration: Totempole/No
                 ; 0000 0287 // Bit1 Input/Sense configuration: Sense both edges
                 ; 0000 0288 // Bit1 inverted: Off
                 ; 0000 0289 // Bit1 slew rate limitation: Off
                 ; 0000 028A PORTJ.PIN1CTRL=PORT_OPC_TOTEM_gc | PORT_ISC_BOTHEDGES_gc;
000b4e 93e0 0711 	STS  1809,R30
                 ; 0000 028B // Bit2 Output/Pull configuration: Totempole/No
                 ; 0000 028C // Bit2 Input/Sense configuration: Sense both edges
                 ; 0000 028D // Bit2 inverted: Off
                 ; 0000 028E // Bit2 slew rate limitation: Off
                 ; 0000 028F PORTJ.PIN2CTRL=PORT_OPC_TOTEM_gc | PORT_ISC_BOTHEDGES_gc;
000b50 93e0 0712 	STS  1810,R30
                 ; 0000 0290 // Bit3 Output/Pull configuration: Totempole/No
                 ; 0000 0291 // Bit3 Input/Sense configuration: Sense both edges
                 ; 0000 0292 // Bit3 inverted: Off
                 ; 0000 0293 // Bit3 slew rate limitation: Off
                 ; 0000 0294 PORTJ.PIN3CTRL=PORT_OPC_TOTEM_gc | PORT_ISC_BOTHEDGES_gc;
000b52 93e0 0713 	STS  1811,R30
                 ; 0000 0295 // Bit4 Output/Pull configuration: Totempole/No
                 ; 0000 0296 // Bit4 Input/Sense configuration: Sense both edges
                 ; 0000 0297 // Bit4 inverted: Off
                 ; 0000 0298 // Bit4 slew rate limitation: Off
                 ; 0000 0299 PORTJ.PIN4CTRL=PORT_OPC_TOTEM_gc | PORT_ISC_BOTHEDGES_gc;
000b54 93e0 0714 	STS  1812,R30
                 ; 0000 029A // Bit5 Output/Pull configuration: Totempole/No
                 ; 0000 029B // Bit5 Input/Sense configuration: Sense both edges
                 ; 0000 029C // Bit5 inverted: Off
                 ; 0000 029D // Bit5 slew rate limitation: Off
                 ; 0000 029E PORTJ.PIN5CTRL=PORT_OPC_TOTEM_gc | PORT_ISC_BOTHEDGES_gc;
000b56 93e0 0715 	STS  1813,R30
                 ; 0000 029F // Bit6 Output/Pull configuration: Totempole/No
                 ; 0000 02A0 // Bit6 Input/Sense configuration: Sense both edges
                 ; 0000 02A1 // Bit6 inverted: Off
                 ; 0000 02A2 // Bit6 slew rate limitation: Off
                 ; 0000 02A3 PORTJ.PIN6CTRL=PORT_OPC_TOTEM_gc | PORT_ISC_BOTHEDGES_gc;
000b58 93e0 0716 	STS  1814,R30
                 ; 0000 02A4 // Bit7 Output/Pull configuration: Totempole/No
                 ; 0000 02A5 // Bit7 Input/Sense configuration: Sense both edges
                 ; 0000 02A6 // Bit7 inverted: Off
                 ; 0000 02A7 // Bit7 slew rate limitation: Off
                 ; 0000 02A8 PORTJ.PIN7CTRL=PORT_OPC_TOTEM_gc | PORT_ISC_BOTHEDGES_gc;
000b5a 93e0 0717 	STS  1815,R30
                 ; 0000 02A9 // Interrupt 0 level: Disabled
                 ; 0000 02AA // Interrupt 1 level: Disabled
                 ; 0000 02AB PORTJ.INTCTRL=(PORTJ.INTCTRL & (~(PORT_INT1LVL_gm | PORT_INT0LVL_gm))) |
                 ; 0000 02AC 	PORT_INT1LVL_OFF_gc | PORT_INT0LVL_OFF_gc;
000b5c 91e0 0709 	LDS  R30,1801
000b5e 7fe0      	ANDI R30,LOW(0xF0)
000b5f 93e0 0709 	STS  1801,R30
                 ; 0000 02AD // Bit0 pin change interrupt 0: Off
                 ; 0000 02AE // Bit1 pin change interrupt 0: Off
                 ; 0000 02AF // Bit2 pin change interrupt 0: Off
                 ; 0000 02B0 // Bit3 pin change interrupt 0: Off
                 ; 0000 02B1 // Bit4 pin change interrupt 0: Off
                 ; 0000 02B2 // Bit5 pin change interrupt 0: Off
                 ; 0000 02B3 // Bit6 pin change interrupt 0: Off
                 ; 0000 02B4 // Bit7 pin change interrupt 0: Off
                 ; 0000 02B5 PORTJ.INT0MASK=0x00;
000b61 e0e0      	LDI  R30,LOW(0)
000b62 93e0 070a 	STS  1802,R30
                 ; 0000 02B6 // Bit0 pin change interrupt 1: Off
                 ; 0000 02B7 // Bit1 pin change interrupt 1: Off
                 ; 0000 02B8 // Bit2 pin change interrupt 1: Off
                 ; 0000 02B9 // Bit3 pin change interrupt 1: Off
                 ; 0000 02BA // Bit4 pin change interrupt 1: Off
                 ; 0000 02BB // Bit5 pin change interrupt 1: Off
                 ; 0000 02BC // Bit6 pin change interrupt 1: Off
                 ; 0000 02BD // Bit7 pin change interrupt 1: Off
                 ; 0000 02BE PORTJ.INT1MASK=0x00;
000b64 93e0 070b 	STS  1803,R30
                 ; 0000 02BF 
                 ; 0000 02C0 // PORTK initialization
                 ; 0000 02C1 // OUT register
                 ; 0000 02C2 PORTK.OUT=0x00;
000b66 93e0 0724 	STS  1828,R30
                 ; 0000 02C3 // Bit0: Output
                 ; 0000 02C4 // Bit1: Output
                 ; 0000 02C5 // Bit2: Output
                 ; 0000 02C6 // Bit3: Output
                 ; 0000 02C7 // Bit4: Output
                 ; 0000 02C8 // Bit5: Output
                 ; 0000 02C9 // Bit6: Output
                 ; 0000 02CA // Bit7: Output
                 ; 0000 02CB PORTK.DIR=0xFF;
000b68 efef      	LDI  R30,LOW(255)
000b69 93e0 0720 	STS  1824,R30
                 ; 0000 02CC // Bit0 Output/Pull configuration: Totempole/No
                 ; 0000 02CD // Bit0 Input/Sense configuration: Sense both edges
                 ; 0000 02CE // Bit0 inverted: Off
                 ; 0000 02CF // Bit0 slew rate limitation: Off
                 ; 0000 02D0 PORTK.PIN0CTRL=PORT_OPC_TOTEM_gc | PORT_ISC_BOTHEDGES_gc;
000b6b e0e0      	LDI  R30,LOW(0)
000b6c 93e0 0730 	STS  1840,R30
                 ; 0000 02D1 // Bit1 Output/Pull configuration: Totempole/No
                 ; 0000 02D2 // Bit1 Input/Sense configuration: Sense both edges
                 ; 0000 02D3 // Bit1 inverted: Off
                 ; 0000 02D4 // Bit1 slew rate limitation: Off
                 ; 0000 02D5 PORTK.PIN1CTRL=PORT_OPC_TOTEM_gc | PORT_ISC_BOTHEDGES_gc;
000b6e 93e0 0731 	STS  1841,R30
                 ; 0000 02D6 // Bit2 Output/Pull configuration: Totempole/No
                 ; 0000 02D7 // Bit2 Input/Sense configuration: Sense both edges
                 ; 0000 02D8 // Bit2 inverted: Off
                 ; 0000 02D9 // Bit2 slew rate limitation: Off
                 ; 0000 02DA PORTK.PIN2CTRL=PORT_OPC_TOTEM_gc | PORT_ISC_BOTHEDGES_gc;
000b70 93e0 0732 	STS  1842,R30
                 ; 0000 02DB // Bit3 Output/Pull configuration: Totempole/No
                 ; 0000 02DC // Bit3 Input/Sense configuration: Sense both edges
                 ; 0000 02DD // Bit3 inverted: Off
                 ; 0000 02DE // Bit3 slew rate limitation: Off
                 ; 0000 02DF PORTK.PIN3CTRL=PORT_OPC_TOTEM_gc | PORT_ISC_BOTHEDGES_gc;
000b72 93e0 0733 	STS  1843,R30
                 ; 0000 02E0 // Bit4 Output/Pull configuration: Totempole/No
                 ; 0000 02E1 // Bit4 Input/Sense configuration: Sense both edges
                 ; 0000 02E2 // Bit4 inverted: Off
                 ; 0000 02E3 // Bit4 slew rate limitation: Off
                 ; 0000 02E4 PORTK.PIN4CTRL=PORT_OPC_TOTEM_gc | PORT_ISC_BOTHEDGES_gc;
000b74 93e0 0734 	STS  1844,R30
                 ; 0000 02E5 // Bit5 Output/Pull configuration: Totempole/No
                 ; 0000 02E6 // Bit5 Input/Sense configuration: Sense both edges
                 ; 0000 02E7 // Bit5 inverted: Off
                 ; 0000 02E8 // Bit5 slew rate limitation: Off
                 ; 0000 02E9 PORTK.PIN5CTRL=PORT_OPC_TOTEM_gc | PORT_ISC_BOTHEDGES_gc;
000b76 93e0 0735 	STS  1845,R30
                 ; 0000 02EA // Bit6 Output/Pull configuration: Totempole/No
                 ; 0000 02EB // Bit6 Input/Sense configuration: Sense both edges
                 ; 0000 02EC // Bit6 inverted: Off
                 ; 0000 02ED // Bit6 slew rate limitation: Off
                 ; 0000 02EE PORTK.PIN6CTRL=PORT_OPC_TOTEM_gc | PORT_ISC_BOTHEDGES_gc;
000b78 93e0 0736 	STS  1846,R30
                 ; 0000 02EF // Bit7 Output/Pull configuration: Totempole/No
                 ; 0000 02F0 // Bit7 Input/Sense configuration: Sense both edges
                 ; 0000 02F1 // Bit7 inverted: Off
                 ; 0000 02F2 // Bit7 slew rate limitation: Off
                 ; 0000 02F3 PORTK.PIN7CTRL=PORT_OPC_TOTEM_gc | PORT_ISC_BOTHEDGES_gc;
000b7a 93e0 0737 	STS  1847,R30
                 ; 0000 02F4 // Interrupt 0 level: Disabled
                 ; 0000 02F5 // Interrupt 1 level: Disabled
                 ; 0000 02F6 PORTK.INTCTRL=(PORTK.INTCTRL & (~(PORT_INT1LVL_gm | PORT_INT0LVL_gm))) |
                 ; 0000 02F7 	PORT_INT1LVL_OFF_gc | PORT_INT0LVL_OFF_gc;
000b7c 91e0 0729 	LDS  R30,1833
000b7e 7fe0      	ANDI R30,LOW(0xF0)
000b7f 93e0 0729 	STS  1833,R30
                 ; 0000 02F8 // Bit0 pin change interrupt 0: Off
                 ; 0000 02F9 // Bit1 pin change interrupt 0: Off
                 ; 0000 02FA // Bit2 pin change interrupt 0: Off
                 ; 0000 02FB // Bit3 pin change interrupt 0: Off
                 ; 0000 02FC // Bit4 pin change interrupt 0: Off
                 ; 0000 02FD // Bit5 pin change interrupt 0: Off
                 ; 0000 02FE // Bit6 pin change interrupt 0: Off
                 ; 0000 02FF // Bit7 pin change interrupt 0: Off
                 ; 0000 0300 PORTK.INT0MASK=0x00;
000b81 e0e0      	LDI  R30,LOW(0)
000b82 93e0 072a 	STS  1834,R30
                 ; 0000 0301 // Bit0 pin change interrupt 1: Off
                 ; 0000 0302 // Bit1 pin change interrupt 1: Off
                 ; 0000 0303 // Bit2 pin change interrupt 1: Off
                 ; 0000 0304 // Bit3 pin change interrupt 1: Off
                 ; 0000 0305 // Bit4 pin change interrupt 1: Off
                 ; 0000 0306 // Bit5 pin change interrupt 1: Off
                 ; 0000 0307 // Bit6 pin change interrupt 1: Off
                 ; 0000 0308 // Bit7 pin change interrupt 1: Off
                 ; 0000 0309 PORTK.INT1MASK=0x00;
000b84 93e0 072b 	STS  1835,R30
                 ; 0000 030A 
                 ; 0000 030B // PORTQ initialization
                 ; 0000 030C // OUT register
                 ; 0000 030D PORTQ.OUT=0x00;
000b86 93e0 07c4 	STS  1988,R30
                 ; 0000 030E // Bit0: Input
                 ; 0000 030F // Bit1: Input
                 ; 0000 0310 // Bit2: Input
                 ; 0000 0311 // Bit3: Input
                 ; 0000 0312 PORTQ.DIR=0x00;
000b88 93e0 07c0 	STS  1984,R30
                 ; 0000 0313 // Bit0 Output/Pull configuration: Totempole/No
                 ; 0000 0314 // Bit0 Input/Sense configuration: Sense both edges
                 ; 0000 0315 // Bit0 inverted: Off
                 ; 0000 0316 // Bit0 slew rate limitation: Off
                 ; 0000 0317 PORTQ.PIN0CTRL=PORT_OPC_TOTEM_gc | PORT_ISC_BOTHEDGES_gc;
000b8a 93e0 07d0 	STS  2000,R30
                 ; 0000 0318 // Bit1 Output/Pull configuration: Totempole/No
                 ; 0000 0319 // Bit1 Input/Sense configuration: Sense both edges
                 ; 0000 031A // Bit1 inverted: Off
                 ; 0000 031B // Bit1 slew rate limitation: Off
                 ; 0000 031C PORTQ.PIN1CTRL=PORT_OPC_TOTEM_gc | PORT_ISC_BOTHEDGES_gc;
000b8c 93e0 07d1 	STS  2001,R30
                 ; 0000 031D // Bit2 Output/Pull configuration: Totempole/No
                 ; 0000 031E // Bit2 Input/Sense configuration: Sense both edges
                 ; 0000 031F // Bit2 inverted: Off
                 ; 0000 0320 // Bit2 slew rate limitation: Off
                 ; 0000 0321 PORTQ.PIN2CTRL=PORT_OPC_TOTEM_gc | PORT_ISC_BOTHEDGES_gc;
000b8e 93e0 07d2 	STS  2002,R30
                 ; 0000 0322 // Bit3 Output/Pull configuration: Totempole/No
                 ; 0000 0323 // Bit3 Input/Sense configuration: Sense both edges
                 ; 0000 0324 // Bit3 inverted: Off
                 ; 0000 0325 // Bit3 slew rate limitation: Off
                 ; 0000 0326 PORTQ.PIN3CTRL=PORT_OPC_TOTEM_gc | PORT_ISC_BOTHEDGES_gc;
000b90 93e0 07d3 	STS  2003,R30
                 ; 0000 0327 // Interrupt 0 level: Disabled
                 ; 0000 0328 // Interrupt 1 level: Disabled
                 ; 0000 0329 PORTQ.INTCTRL=(PORTQ.INTCTRL & (~(PORT_INT1LVL_gm | PORT_INT0LVL_gm))) |
                 ; 0000 032A 	PORT_INT1LVL_OFF_gc | PORT_INT0LVL_OFF_gc;
000b92 91e0 07c9 	LDS  R30,1993
000b94 7fe0      	ANDI R30,LOW(0xF0)
000b95 93e0 07c9 	STS  1993,R30
                 ; 0000 032B // Bit0 pin change interrupt 0: Off
                 ; 0000 032C // Bit1 pin change interrupt 0: Off
                 ; 0000 032D // Bit2 pin change interrupt 0: Off
                 ; 0000 032E // Bit3 pin change interrupt 0: Off
                 ; 0000 032F PORTQ.INT0MASK=0x00;
000b97 e0e0      	LDI  R30,LOW(0)
000b98 93e0 07ca 	STS  1994,R30
                 ; 0000 0330 // Bit0 pin change interrupt 1: Off
                 ; 0000 0331 // Bit1 pin change interrupt 1: Off
                 ; 0000 0332 // Bit2 pin change interrupt 1: Off
                 ; 0000 0333 // Bit3 pin change interrupt 1: Off
                 ; 0000 0334 PORTQ.INT1MASK=0x00;
000b9a 93e0 07cb 	STS  1995,R30
                 ; 0000 0335 
                 ; 0000 0336 // PORTR initialization
                 ; 0000 0337 // OUT register
                 ; 0000 0338 PORTR.OUT=0x00;
000b9c 93e0 07e4 	STS  2020,R30
                 ; 0000 0339 // Bit0: Input
                 ; 0000 033A // Bit1: Input
                 ; 0000 033B PORTR.DIR=0x00;
000b9e 93e0 07e0 	STS  2016,R30
                 ; 0000 033C // Bit0 Output/Pull configuration: Totempole/No
                 ; 0000 033D // Bit0 Input/Sense configuration: Sense both edges
                 ; 0000 033E // Bit0 inverted: Off
                 ; 0000 033F // Bit0 slew rate limitation: Off
                 ; 0000 0340 PORTR.PIN0CTRL=PORT_OPC_TOTEM_gc | PORT_ISC_BOTHEDGES_gc;
000ba0 93e0 07f0 	STS  2032,R30
                 ; 0000 0341 // Bit1 Output/Pull configuration: Totempole/No
                 ; 0000 0342 // Bit1 Input/Sense configuration: Sense both edges
                 ; 0000 0343 // Bit1 inverted: Off
                 ; 0000 0344 // Bit1 slew rate limitation: Off
                 ; 0000 0345 PORTR.PIN1CTRL=PORT_OPC_TOTEM_gc | PORT_ISC_BOTHEDGES_gc;
000ba2 93e0 07f1 	STS  2033,R30
                 ; 0000 0346 // Interrupt 0 level: Disabled
                 ; 0000 0347 // Interrupt 1 level: Disabled
                 ; 0000 0348 PORTR.INTCTRL=(PORTR.INTCTRL & (~(PORT_INT1LVL_gm | PORT_INT0LVL_gm))) |
                 ; 0000 0349 	PORT_INT1LVL_OFF_gc | PORT_INT0LVL_OFF_gc;
000ba4 91e0 07e9 	LDS  R30,2025
000ba6 7fe0      	ANDI R30,LOW(0xF0)
000ba7 93e0 07e9 	STS  2025,R30
                 ; 0000 034A // Bit0 pin change interrupt 0: Off
                 ; 0000 034B // Bit1 pin change interrupt 0: Off
                 ; 0000 034C PORTR.INT0MASK=0x00;
000ba9 e0e0      	LDI  R30,LOW(0)
000baa 93e0 07ea 	STS  2026,R30
                 ; 0000 034D // Bit0 pin change interrupt 1: Off
                 ; 0000 034E // Bit1 pin change interrupt 1: Off
                 ; 0000 034F PORTR.INT1MASK=0x00;
000bac 93e0 07eb 	STS  2027,R30
                 ; 0000 0350 }
000bae 9508      	RET
                 ;
                 ;// Virtual Ports initialization
                 ;void vports_init(void)
                 ; 0000 0354 {
                 _vports_init:
                 ; 0000 0355 // PORTA mapped to VPORT0
                 ; 0000 0356 // PORTB mapped to VPORT1
                 ; 0000 0357 PORTCFG.VPCTRLA=PORTCFG_VP1MAP_PORTB_gc | PORTCFG_VP0MAP_PORTA_gc;
000baf e1e0      	LDI  R30,LOW(16)
000bb0 93e0 00b2 	STS  178,R30
                 ; 0000 0358 // PORTC mapped to VPORT2
                 ; 0000 0359 // PORTD mapped to VPORT3
                 ; 0000 035A PORTCFG.VPCTRLB=PORTCFG_VP3MAP_PORTD_gc | PORTCFG_VP2MAP_PORTC_gc;
000bb2 e3e2      	LDI  R30,LOW(50)
000bb3 93e0 00b3 	STS  179,R30
                 ; 0000 035B }
000bb5 9508      	RET
                 ;
                 ;// Disable a Timer/Counter type 0
                 ;void tc0_disable(TC0_t *ptc)
                 ; 0000 035F {
                 _tc0_disable:
                 ; 0000 0360 // Timer/Counter off
                 ; 0000 0361 ptc->CTRLA=(ptc->CTRLA & (~TC0_CLKSEL_gm)) | TC_CLKSEL_OFF_gc;
000bb6 93ba      	ST   -Y,R27
000bb7 93aa      	ST   -Y,R26
                 ;	*ptc -> Y+0
000bb8 81a8      	LD   R26,Y
000bb9 81b9      	LDD  R27,Y+1
000bba 91ec      	LD   R30,X
000bbb 7fe0      	ANDI R30,LOW(0xF0)
000bbc 93ec      	ST   X,R30
                 ; 0000 0362 // Issue a reset command
                 ; 0000 0363 ptc->CTRLFSET=TC_CMD_RESET_gc;
000bbd 9619      	ADIW R26,9
000bbe e0ec      	LDI  R30,LOW(12)
000bbf 93ec      	ST   X,R30
                 ; 0000 0364 }
000bc0 c11d      	RJMP _0x20C0016
                 ;
                 ;// Disable a Timer/Counter type 1
                 ;void tc1_disable(TC1_t *ptc)
                 ; 0000 0368 {
                 _tc1_disable:
                 ; 0000 0369 // Timer/Counter off
                 ; 0000 036A ptc->CTRLA=(ptc->CTRLA & (~TC1_CLKSEL_gm)) | TC_CLKSEL_OFF_gc;
000bc1 93ba      	ST   -Y,R27
000bc2 93aa      	ST   -Y,R26
                 ;	*ptc -> Y+0
000bc3 81a8      	LD   R26,Y
000bc4 81b9      	LDD  R27,Y+1
000bc5 91ec      	LD   R30,X
000bc6 7fe0      	ANDI R30,LOW(0xF0)
000bc7 93ec      	ST   X,R30
                 ; 0000 036B // Issue a reset command
                 ; 0000 036C ptc->CTRLFSET=TC_CMD_RESET_gc;
000bc8 9619      	ADIW R26,9
000bc9 e0ec      	LDI  R30,LOW(12)
000bca 93ec      	ST   X,R30
                 ; 0000 036D }
000bcb c112      	RJMP _0x20C0016
                 ;
                 ;// Global variables
                 ;#define radix   9
                 ;#define fft_N   ((unsigned int)(0x01 << radix))
                 ;#define Vref    2.0
                 ;
                 ;typedef struct
                 ;        {
                 ;            float real;
                 ;            float imag;
                 ;        } complex;
                 ;
                 ;union _data_unifier_
                 ;{
                 ;    complex fft_results[fft_N];
                 ;    signed int adc_data[fft_N];
                 ;    unsigned char adc_bytes[fft_N*4];
                 ;    float fft_abs[fft_N];
                 ;    unsigned char fft_abs_uc[fft_N << 1];
                 ;} fft_adc;
                 ;
                 ;//______________________________________________________________SAMPLING_FUNCTIONS_&_VARIABLES_&_INTERRUPTS_____________________
                 ;
                 ;
                 ;// Initializations
                 ;
                 ;// Timer/Counter TCD0 initialization (Sampling commence)
                 ;void tcd0_init(void)
                 ; 0000 038A {
                 _tcd0_init:
                 ; 0000 038B unsigned char s;
                 ; 0000 038C 
                 ; 0000 038D // Note: the correct PORTD direction for the Compare Channels outputs
                 ; 0000 038E // is configured in the ports_init function
                 ; 0000 038F 
                 ; 0000 0390 // Save interrupts enabled/disabled state
                 ; 0000 0391 s=SREG;
000bcc 931a      	ST   -Y,R17
                 ;	s -> R17
000bcd b71f      	IN   R17,63
                 ; 0000 0392 // Disable interrupts
                 ; 0000 0393 #asm("cli")
000bce 94f8      	cli
                 ; 0000 0394 
                 ; 0000 0395 // Disable and reset the timer/counter just to be sure
                 ; 0000 0396 tc0_disable(&TCD0);
000bcf e0a0      	LDI  R26,LOW(2304)
000bd0 e0b9      	LDI  R27,HIGH(2304)
000bd1 dfe4      	RCALL _tc0_disable
                 ; 0000 0397 // Clock source: Peripheral Clock/1024
                 ; 0000 0398 TCD0.CTRLA=(TCD0.CTRLA & (~TC0_CLKSEL_gm)) | TC_CLKSEL_DIV1024_gc;
000bd2 91e0 0900 	LDS  R30,2304
000bd4 7fe0      	ANDI R30,LOW(0xF0)
000bd5 60e7      	ORI  R30,LOW(0x7)
000bd6 93e0 0900 	STS  2304,R30
                 ; 0000 0399 // Mode: Normal Operation, Overflow Int./Event on TOP
                 ; 0000 039A // Compare/Capture on channel A: Off
                 ; 0000 039B // Compare/Capture on channel B: Off
                 ; 0000 039C // Compare/Capture on channel C: Off
                 ; 0000 039D // Compare/Capture on channel D: Off
                 ; 0000 039E TCD0.CTRLB=(TCD0.CTRLB & (~(TC0_CCAEN_bm | TC0_CCBEN_bm | TC0_CCCEN_bm | TC0_CCDEN_bm | TC0_WGMODE_gm))) |
                 ; 0000 039F 	TC_WGMODE_NORMAL_gc;
000bd8 91e0 0901 	LDS  R30,2305
000bda 70e8      	ANDI R30,LOW(0x8)
000bdb 93e0 0901 	STS  2305,R30
                 ; 0000 03A0 
                 ; 0000 03A1 // Capture event source: None
                 ; 0000 03A2 // Capture event action: None
                 ; 0000 03A3 TCD0.CTRLD=(TCD0.CTRLD & (~(TC0_EVACT_gm | TC0_EVSEL_gm))) |
                 ; 0000 03A4 	TC_EVACT_OFF_gc | TC_EVSEL_OFF_gc;
000bdd 91e0 0903 	LDS  R30,2307
000bdf 71e0      	ANDI R30,LOW(0x10)
000be0 93e0 0903 	STS  2307,R30
                 ; 0000 03A5 
                 ; 0000 03A6 // Overflow interrupt: Medium Level
                 ; 0000 03A7 // Error interrupt: Disabled
                 ; 0000 03A8 TCD0.INTCTRLA=(TCD0.INTCTRLA & (~(TC0_ERRINTLVL_gm | TC0_OVFINTLVL_gm))) |
                 ; 0000 03A9 	TC_ERRINTLVL_OFF_gc | TC_OVFINTLVL_MED_gc;
000be2 91e0 0906 	LDS  R30,2310
000be4 7fe0      	ANDI R30,LOW(0xF0)
000be5 60e2      	ORI  R30,2
000be6 93e0 0906 	STS  2310,R30
                 ; 0000 03AA 
                 ; 0000 03AB // Compare/Capture channel A interrupt: Disabled
                 ; 0000 03AC // Compare/Capture channel B interrupt: Disabled
                 ; 0000 03AD // Compare/Capture channel C interrupt: Disabled
                 ; 0000 03AE // Compare/Capture channel D interrupt: Disabled
                 ; 0000 03AF TCD0.INTCTRLB=(TCD0.INTCTRLB & (~(TC0_CCDINTLVL_gm | TC0_CCCINTLVL_gm | TC0_CCBINTLVL_gm | TC0_CCAINTLVL_gm))) |
                 ; 0000 03B0 	TC_CCDINTLVL_OFF_gc | TC_CCCINTLVL_OFF_gc | TC_CCBINTLVL_OFF_gc | TC_CCAINTLVL_OFF_gc;
000be8 91e0 0907 	LDS  R30,2311
000bea 70e0      	ANDI R30,LOW(0x0)
000beb 93e0 0907 	STS  2311,R30
                 ; 0000 03B1 
                 ; 0000 03B2 // High resolution extension: Off
                 ; 0000 03B3 HIRESD.CTRL&= ~HIRES_HREN0_bm;
000bed 91e0 0990 	LDS  R30,2448
000bef 7fee      	ANDI R30,0xFE
000bf0 93e0 0990 	STS  2448,R30
                 ; 0000 03B4 
                 ; 0000 03B5 // Clear the interrupt flags
                 ; 0000 03B6 TCD0.INTFLAGS=TCD0.INTFLAGS;
000bf2 91e0 090c 	LDS  R30,2316
000bf4 93e0 090c 	STS  2316,R30
                 ; 0000 03B7 // Set counter register
                 ; 0000 03B8 TCD0.CNT=0x0000;
000bf6 e0e0      	LDI  R30,LOW(0)
000bf7 e0f0      	LDI  R31,HIGH(0)
000bf8 93e0 0920 	STS  2336,R30
000bfa 93f0 0921 	STS  2336+1,R31
                 ; 0000 03B9 // Set period register
                 ; 0000 03BA TCD0.PER=0x7A11;
000bfc e1e1      	LDI  R30,LOW(31249)
000bfd e7fa      	LDI  R31,HIGH(31249)
000bfe 93e0 0926 	STS  2342,R30
000c00 93f0 0927 	STS  2342+1,R31
                 ; 0000 03BB // Set channel A Compare/Capture register
                 ; 0000 03BC TCD0.CCA=0x0000;
000c02 e0e0      	LDI  R30,LOW(0)
000c03 e0f0      	LDI  R31,HIGH(0)
000c04 93e0 0928 	STS  2344,R30
000c06 93f0 0929 	STS  2344+1,R31
                 ; 0000 03BD // Set channel B Compare/Capture register
                 ; 0000 03BE TCD0.CCB=0x0000;
000c08 93e0 092a 	STS  2346,R30
000c0a 93f0 092b 	STS  2346+1,R31
                 ; 0000 03BF // Set channel C Compare/Capture register
                 ; 0000 03C0 TCD0.CCC=0x0000;
000c0c 93e0 092c 	STS  2348,R30
000c0e 93f0 092d 	STS  2348+1,R31
                 ; 0000 03C1 // Set channel D Compare/Capture register
                 ; 0000 03C2 TCD0.CCD=0x0000;
000c10 93e0 092e 	STS  2350,R30
000c12 93f0 092f 	STS  2350+1,R31
                 ; 0000 03C3 
                 ; 0000 03C4 // Restore interrupts enabled/disabled state
                 ; 0000 03C5 SREG=s;
000c14 c3e1      	RJMP _0x20C0012
                 ; 0000 03C6 }
                 ;inline void sampling_commence_disable (void)
                 ; 0000 03C8 {
                 _sampling_commence_disable:
                 ; 0000 03C9     TCD0.CTRLA = 0x00;
000c15 e0e0      	LDI  R30,LOW(0)
000c16 93e0 0900 	STS  2304,R30
                 ; 0000 03CA     TCD0.CNT = 0x00;
000c18 e0e0      	LDI  R30,LOW(0)
000c19 e0f0      	LDI  R31,HIGH(0)
000c1a 93e0 0920 	STS  2336,R30
000c1c 93f0 0921 	STS  2336+1,R31
                 ; 0000 03CB     TCD0.INTFLAGS = 0x01;
000c1e e0e1      	LDI  R30,LOW(1)
000c1f 93e0 090c 	STS  2316,R30
                 ; 0000 03CC }
000c21 9508      	RET
                 ;inline void sampling_commence_enable (void)
                 ; 0000 03CE {
                 _sampling_commence_enable:
                 ; 0000 03CF     TCD0.CTRLA = TC_CLKSEL_DIV1024_gc;
000c22 e0e7      	LDI  R30,LOW(7)
000c23 93e0 0900 	STS  2304,R30
                 ; 0000 03D0 }
000c25 9508      	RET
                 ;
                 ;#define SAMPLING_TIMER_PER  TCC0.PER
                 ;// Timer/Counter TCC0 initialization (ADC trigger timer)
                 ;void tcc0_init(void)
                 ; 0000 03D5 {
                 _tcc0_init:
                 ; 0000 03D6 unsigned char s;
                 ; 0000 03D7 unsigned char n;
                 ; 0000 03D8 
                 ; 0000 03D9 // Note: the correct PORTC direction for the Compare Channels outputs
                 ; 0000 03DA // is configured in the ports_init function
                 ; 0000 03DB 
                 ; 0000 03DC // Save interrupts enabled/disabled state
                 ; 0000 03DD s=SREG;
000c26 931a      	ST   -Y,R17
000c27 930a      	ST   -Y,R16
                 ;	s -> R17
                 ;	n -> R16
000c28 b71f      	IN   R17,63
                 ; 0000 03DE // Disable interrupts
                 ; 0000 03DF #asm("cli")
000c29 94f8      	cli
                 ; 0000 03E0 
                 ; 0000 03E1 // Disable and reset the timer/counter just to be sure
                 ; 0000 03E2 tc0_disable(&TCC0);
000c2a e0a0      	LDI  R26,LOW(2048)
000c2b e0b8      	LDI  R27,HIGH(2048)
000c2c df89      	RCALL _tc0_disable
                 ; 0000 03E3 // Clock source: Peripheral Clock/1
                 ; 0000 03E4 TCC0.CTRLA=(TCC0.CTRLA & (~TC0_CLKSEL_gm)) | TC_CLKSEL_DIV1_gc;
000c2d 91e0 0800 	LDS  R30,2048
000c2f 7fe0      	ANDI R30,LOW(0xF0)
000c30 60e1      	ORI  R30,1
000c31 93e0 0800 	STS  2048,R30
                 ; 0000 03E5 // Mode: Normal Operation, Overflow Int./Event on TOP
                 ; 0000 03E6 // Compare/Capture on channel A: Off
                 ; 0000 03E7 // Compare/Capture on channel B: Off
                 ; 0000 03E8 // Compare/Capture on channel C: Off
                 ; 0000 03E9 // Compare/Capture on channel D: Off
                 ; 0000 03EA TCC0.CTRLB=(TCC0.CTRLB & (~(TC0_CCAEN_bm | TC0_CCBEN_bm | TC0_CCCEN_bm | TC0_CCDEN_bm | TC0_WGMODE_gm))) |
                 ; 0000 03EB 	TC_WGMODE_NORMAL_gc;
000c33 91e0 0801 	LDS  R30,2049
000c35 70e8      	ANDI R30,LOW(0x8)
000c36 93e0 0801 	STS  2049,R30
                 ; 0000 03EC 
                 ; 0000 03ED // Capture event source: None
                 ; 0000 03EE // Capture event action: None
                 ; 0000 03EF TCC0.CTRLD=(TCC0.CTRLD & (~(TC0_EVACT_gm | TC0_EVSEL_gm))) |
                 ; 0000 03F0 	TC_EVACT_OFF_gc | TC_EVSEL_OFF_gc;
000c38 91e0 0803 	LDS  R30,2051
000c3a 71e0      	ANDI R30,LOW(0x10)
000c3b 93e0 0803 	STS  2051,R30
                 ; 0000 03F1 
                 ; 0000 03F2 // Overflow interrupt: Disabled
                 ; 0000 03F3 // Error interrupt: Disabled
                 ; 0000 03F4 TCC0.INTCTRLA=(TCC0.INTCTRLA & (~(TC0_ERRINTLVL_gm | TC0_OVFINTLVL_gm))) |
                 ; 0000 03F5 	TC_ERRINTLVL_OFF_gc | TC_OVFINTLVL_OFF_gc;
000c3d 91e0 0806 	LDS  R30,2054
000c3f 7fe0      	ANDI R30,LOW(0xF0)
000c40 93e0 0806 	STS  2054,R30
                 ; 0000 03F6 
                 ; 0000 03F7 // Compare/Capture channel A interrupt: Disabled
                 ; 0000 03F8 // Compare/Capture channel B interrupt: Disabled
                 ; 0000 03F9 // Compare/Capture channel C interrupt: Disabled
                 ; 0000 03FA // Compare/Capture channel D interrupt: Disabled
                 ; 0000 03FB TCC0.INTCTRLB=(TCC0.INTCTRLB & (~(TC0_CCDINTLVL_gm | TC0_CCCINTLVL_gm | TC0_CCBINTLVL_gm | TC0_CCAINTLVL_gm))) |
                 ; 0000 03FC 	TC_CCDINTLVL_OFF_gc | TC_CCCINTLVL_OFF_gc | TC_CCBINTLVL_OFF_gc | TC_CCAINTLVL_OFF_gc;
000c42 91e0 0807 	LDS  R30,2055
000c44 70e0      	ANDI R30,LOW(0x0)
000c45 93e0 0807 	STS  2055,R30
                 ; 0000 03FD 
                 ; 0000 03FE // High resolution extension: Off
                 ; 0000 03FF HIRESC.CTRL&= ~HIRES_HREN0_bm;
000c47 91e0 0890 	LDS  R30,2192
000c49 7fee      	ANDI R30,0xFE
000c4a 93e0 0890 	STS  2192,R30
                 ; 0000 0400 
                 ; 0000 0401 // Advanced Waveform Extension initialization
                 ; 0000 0402 // Optimize for speed
                 ; 0000 0403 #pragma optsize-
                 ; 0000 0404 // Disable locking the AWEX configuration registers just to be sure
                 ; 0000 0405 n=MCU.AWEXLOCK & (~MCU_AWEXCLOCK_bm);
000c4c 91e0 0099 	LDS  R30,153
000c4e 7fee      	ANDI R30,0xFE
000c4f 2f0e      	MOV  R16,R30
                 ; 0000 0406 CCP=CCP_IOREG_gc;
000c50 ede8      	LDI  R30,LOW(216)
000c51 bfe4      	OUT  0x34,R30
                 ; 0000 0407 MCU.AWEXLOCK=n;
000c52 9300 0099 	STS  153,R16
                 ; 0000 0408 // Restore optimization for size if needed
                 ; 0000 0409 #pragma optsize_default
                 ; 0000 040A 
                 ; 0000 040B // Pattern generation: Off
                 ; 0000 040C // Dead time insertion: Off
                 ; 0000 040D AWEXC.CTRL&= ~(AWEX_PGM_bm | AWEX_CWCM_bm | AWEX_DTICCDEN_bm | AWEX_DTICCCEN_bm | AWEX_DTICCBEN_bm | AWEX_DTICCAEN_bm);
000c54 91e0 0880 	LDS  R30,2176
000c56 7ce0      	ANDI R30,LOW(0xC0)
000c57 93e0 0880 	STS  2176,R30
                 ; 0000 040E 
                 ; 0000 040F // Fault protection initialization
                 ; 0000 0410 // Fault detection on OCD Break detection: On
                 ; 0000 0411 // Fault detection restart mode: Latched Mode
                 ; 0000 0412 // Fault detection action: None (Fault protection disabled)
                 ; 0000 0413 AWEXC.FDCTRL=(AWEXC.FDCTRL & (~(AWEX_FDDBD_bm | AWEX_FDMODE_bm | AWEX_FDACT_gm))) |
                 ; 0000 0414 	AWEX_FDACT_NONE_gc;
000c59 91e0 0883 	LDS  R30,2179
000c5b 7ee8      	ANDI R30,LOW(0xE8)
000c5c 93e0 0883 	STS  2179,R30
                 ; 0000 0415 // Fault detect events:
                 ; 0000 0416 // Event channel 0: Off
                 ; 0000 0417 // Event channel 1: Off
                 ; 0000 0418 // Event channel 2: Off
                 ; 0000 0419 // Event channel 3: Off
                 ; 0000 041A // Event channel 4: Off
                 ; 0000 041B // Event channel 5: Off
                 ; 0000 041C // Event channel 6: Off
                 ; 0000 041D // Event channel 7: Off
                 ; 0000 041E AWEXC.FDEVMASK=0b00000000;
000c5e e0e0      	LDI  R30,LOW(0)
000c5f 93e0 0882 	STS  2178,R30
                 ; 0000 041F // Make sure the fault detect flag is cleared
                 ; 0000 0420 AWEXC.STATUS|=AWEXC.STATUS & AWEX_FDF_bm;
000c61 e8a4      	LDI  R26,LOW(2180)
000c62 e0b8      	LDI  R27,HIGH(2180)
000c63 2e0a      	MOV  R0,R26
000c64 91ac      	LD   R26,X
000c65 91e0 0884 	LDS  R30,2180
000c67 70e4      	ANDI R30,LOW(0x4)
000c68 2bea      	OR   R30,R26
000c69 2da0      	MOV  R26,R0
000c6a 93ec      	ST   X,R30
                 ; 0000 0421 
                 ; 0000 0422 // Clear the interrupt flags
                 ; 0000 0423 TCC0.INTFLAGS=TCC0.INTFLAGS;
000c6b 91e0 080c 	LDS  R30,2060
000c6d 93e0 080c 	STS  2060,R30
                 ; 0000 0424 // Set counter register
                 ; 0000 0425 TCC0.CNT=0x0000;
000c6f e0e0      	LDI  R30,LOW(0)
000c70 e0f0      	LDI  R31,HIGH(0)
000c71 93e0 0820 	STS  2080,R30
000c73 93f0 0821 	STS  2080+1,R31
                 ; 0000 0426 // Set period register
                 ; 0000 0427 TCC0.PER=0x000F;
000c75 e0ef      	LDI  R30,LOW(15)
000c76 e0f0      	LDI  R31,HIGH(15)
000c77 93e0 0826 	STS  2086,R30
000c79 93f0 0827 	STS  2086+1,R31
                 ; 0000 0428 // Set channel A Compare/Capture register
                 ; 0000 0429 TCC0.CCA=0x0000;
000c7b e0e0      	LDI  R30,LOW(0)
000c7c e0f0      	LDI  R31,HIGH(0)
000c7d 93e0 0828 	STS  2088,R30
000c7f 93f0 0829 	STS  2088+1,R31
                 ; 0000 042A // Set channel B Compare/Capture register
                 ; 0000 042B TCC0.CCB=0x0000;
000c81 93e0 082a 	STS  2090,R30
000c83 93f0 082b 	STS  2090+1,R31
                 ; 0000 042C // Set channel C Compare/Capture register
                 ; 0000 042D TCC0.CCC=0x0000;
000c85 93e0 082c 	STS  2092,R30
000c87 93f0 082d 	STS  2092+1,R31
                 ; 0000 042E // Set channel D Compare/Capture register
                 ; 0000 042F TCC0.CCD=0x0000;
000c89 93e0 082e 	STS  2094,R30
000c8b 93f0 082f 	STS  2094+1,R31
                 ; 0000 0430 
                 ; 0000 0431 // Restore interrupts enabled/disabled state
                 ; 0000 0432 SREG=s;
000c8d c22e      	RJMP _0x20C0014
                 ; 0000 0433 }
                 ;unsigned char TCC0_CTRLA_temp = 0x00;
                 ;inline void sampling_disable (void)
                 ; 0000 0436 {
                 _sampling_disable:
                 ; 0000 0437     TCC0_CTRLA_temp = TCC0.CTRLA;
000c8e 9030 0800 	LDS  R3,2048
                 ; 0000 0438     TCC0.CTRLA = 0x00;
000c90 e0e0      	LDI  R30,LOW(0)
000c91 93e0 0800 	STS  2048,R30
                 ; 0000 0439     TCC0.CNT = 0x00;
000c93 e0e0      	LDI  R30,LOW(0)
000c94 e0f0      	LDI  R31,HIGH(0)
000c95 93e0 0820 	STS  2080,R30
000c97 93f0 0821 	STS  2080+1,R31
                 ; 0000 043A }
000c99 9508      	RET
                 ;inline void sampling_enable (void)
                 ; 0000 043C {
                 _sampling_enable:
                 ; 0000 043D     TCC0.CTRLA = TCC0_CTRLA_temp;
000c9a 9230 0800 	STS  2048,R3
                 ; 0000 043E }
000c9c 9508      	RET
                 ;
                 ;// Event System initialization (ADC trigger Event)
                 ;void event_system_init(void)
                 ; 0000 0442 {
                 _event_system_init:
                 ; 0000 0443 // Event System Channel 0 source: None
                 ; 0000 0444 EVSYS.CH0MUX=EVSYS_CHMUX_OFF_gc;
000c9d e0e0      	LDI  R30,LOW(0)
000c9e 93e0 0180 	STS  384,R30
                 ; 0000 0445 // Event System Channel 1 source: None
                 ; 0000 0446 EVSYS.CH1MUX=EVSYS_CHMUX_OFF_gc;
000ca0 93e0 0181 	STS  385,R30
                 ; 0000 0447 // Event System Channel 2 source: None
                 ; 0000 0448 EVSYS.CH2MUX=EVSYS_CHMUX_OFF_gc;
000ca2 93e0 0182 	STS  386,R30
                 ; 0000 0449 // Event System Channel 3 source: None
                 ; 0000 044A EVSYS.CH3MUX=EVSYS_CHMUX_OFF_gc;
000ca4 93e0 0183 	STS  387,R30
                 ; 0000 044B // Event System Channel 4 source: None
                 ; 0000 044C EVSYS.CH4MUX=EVSYS_CHMUX_OFF_gc;
000ca6 93e0 0184 	STS  388,R30
                 ; 0000 044D // Event System Channel 5 source: None
                 ; 0000 044E EVSYS.CH5MUX=EVSYS_CHMUX_OFF_gc;
000ca8 93e0 0185 	STS  389,R30
                 ; 0000 044F // Event System Channel 6 source: None
                 ; 0000 0450 EVSYS.CH6MUX=EVSYS_CHMUX_OFF_gc;
000caa 93e0 0186 	STS  390,R30
                 ; 0000 0451 // Event System Channel 7 source: Timer/Counter C0 Overflow
                 ; 0000 0452 EVSYS.CH7MUX=EVSYS_CHMUX_TCC0_OVF_gc;
000cac ece0      	LDI  R30,LOW(192)
000cad 93e0 0187 	STS  391,R30
                 ; 0000 0453 
                 ; 0000 0454 // Event System Channel 0 Digital Filter Coefficient: 1 Sample
                 ; 0000 0455 EVSYS.CH0CTRL=(EVSYS.CH0CTRL & (~(EVSYS_QDIRM_gm | EVSYS_QDIEN_bm | EVSYS_QDEN_bm | EVSYS_DIGFILT_gm))) |
                 ; 0000 0456 	EVSYS_DIGFILT_1SAMPLE_gc;
000caf 91e0 0188 	LDS  R30,392
000cb1 78e0      	ANDI R30,LOW(0x80)
000cb2 93e0 0188 	STS  392,R30
                 ; 0000 0457 // Event System Channel 1 Digital Filter Coefficient: 1 Sample
                 ; 0000 0458 EVSYS.CH1CTRL=EVSYS_DIGFILT_1SAMPLE_gc;
000cb4 e0e0      	LDI  R30,LOW(0)
000cb5 93e0 0189 	STS  393,R30
                 ; 0000 0459 // Event System Channel 2 Digital Filter Coefficient: 1 Sample
                 ; 0000 045A EVSYS.CH2CTRL=(EVSYS.CH2CTRL & (~(EVSYS_QDIRM_gm | EVSYS_QDIEN_bm | EVSYS_QDEN_bm | EVSYS_DIGFILT_gm))) |
                 ; 0000 045B 	EVSYS_DIGFILT_1SAMPLE_gc;
000cb7 91e0 018a 	LDS  R30,394
000cb9 78e0      	ANDI R30,LOW(0x80)
000cba 93e0 018a 	STS  394,R30
                 ; 0000 045C // Event System Channel 3 Digital Filter Coefficient: 1 Sample
                 ; 0000 045D EVSYS.CH3CTRL=EVSYS_DIGFILT_1SAMPLE_gc;
000cbc e0e0      	LDI  R30,LOW(0)
000cbd 93e0 018b 	STS  395,R30
                 ; 0000 045E // Event System Channel 4 Digital Filter Coefficient: 1 Sample
                 ; 0000 045F EVSYS.CH4CTRL=(EVSYS.CH4CTRL & (~(EVSYS_QDIRM_gm | EVSYS_QDIEN_bm | EVSYS_QDEN_bm | EVSYS_DIGFILT_gm))) |
                 ; 0000 0460 	EVSYS_DIGFILT_1SAMPLE_gc;
000cbf 91e0 018c 	LDS  R30,396
000cc1 78e0      	ANDI R30,LOW(0x80)
000cc2 93e0 018c 	STS  396,R30
                 ; 0000 0461 // Event System Channel 5 Digital Filter Coefficient: 1 Sample
                 ; 0000 0462 EVSYS.CH5CTRL=EVSYS_DIGFILT_1SAMPLE_gc;
000cc4 e0e0      	LDI  R30,LOW(0)
000cc5 93e0 018d 	STS  397,R30
                 ; 0000 0463 // Event System Channel 6 Digital Filter Coefficient: 1 Sample
                 ; 0000 0464 EVSYS.CH6CTRL=EVSYS_DIGFILT_1SAMPLE_gc;
000cc7 93e0 018e 	STS  398,R30
                 ; 0000 0465 // Event System Channel 7 Digital Filter Coefficient: 1 Sample
                 ; 0000 0466 EVSYS.CH7CTRL=EVSYS_DIGFILT_1SAMPLE_gc;
000cc9 93e0 018f 	STS  399,R30
                 ; 0000 0467 
                 ; 0000 0468 // Event System Channel 0 output: Disabled
                 ; 0000 0469 // Note: the correct direction for the Event System Channel 0 output
                 ; 0000 046A // is configured in the ports_init function
                 ; 0000 046B PORTCFG.CLKEVOUT=(PORTCFG.CLKEVOUT & (~PORTCFG_EVOUT_gm)) | PORTCFG_EVOUT_OFF_gc;
000ccb 91e0 00b4 	LDS  R30,180
000ccd 7cef      	ANDI R30,LOW(0xCF)
000cce 93e0 00b4 	STS  180,R30
                 ; 0000 046C }
000cd0 9508      	RET
                 ;
                 ;// ADC initialization
                 ;// Function used to read the calibration byte from the
                 ;// signature row, specified by 'index'
                 ;#pragma optsize-
                 ;unsigned char read_calibration_byte(unsigned char index)
                 ; 0000 0473 {
                 _read_calibration_byte:
                 ; 0000 0474 unsigned char r;
                 ; 0000 0475 NVM.CMD=NVM_CMD_READ_CALIB_ROW_gc;
000cd1 93aa      	ST   -Y,R26
000cd2 931a      	ST   -Y,R17
                 ;	index -> Y+1
                 ;	r -> R17
000cd3 e0e2      	LDI  R30,LOW(2)
000cd4 93e0 01ca 	STS  458,R30
                 ; 0000 0476 r=*((flash unsigned char*) index);
000cd6 81e9      	LDD  R30,Y+1
000cd7 e0f0      	LDI  R31,0
000cd8 9114      	LPM  R17,Z
                 ; 0000 0477 // Clean up NVM command register
                 ; 0000 0478 NVM.CMD=NVM_CMD_NO_OPERATION_gc;
000cd9 e0e0      	LDI  R30,LOW(0)
000cda 93e0 01ca 	STS  458,R30
                 ; 0000 0479 return r;
000cdc 2fe1      	MOV  R30,R17
000cdd 8118      	LDD  R17,Y+0
                 _0x20C0016:
000cde 9622      	ADIW R28,2
000cdf 9508      	RET
                 ; 0000 047A }
                 ;#pragma optsize_default
                 ;
                 ;// ADCA initialization
                 ;// Variable used to store the ADC offset
                 ;// for 12 Bit Signed conversion mode
                 ;signed int adca_offset;
                 ;
                 ;void adca_init(unsigned char gain)
                 ; 0000 0483 {
                 _adca_init:
                 ; 0000 0484 unsigned char i;
                 ; 0000 0485 int offs;
                 ; 0000 0486 
                 ; 0000 0487 // ADCA is enabled
                 ; 0000 0488 // Resolution: 12 Bits
                 ; 0000 0489 // Load the calibration value for 12 Bit resolution
                 ; 0000 048A // from the signature row
                 ; 0000 048B ADCA.CALL=read_calibration_byte(PROD_SIGNATURES_START+ADCACAL0_offset);
000ce0 93aa      	ST   -Y,R26
000ce1 940e 21d9 	CALL __SAVELOCR4
                 ;	gain -> Y+4
                 ;	i -> R17
                 ;	offs -> R18,R19
000ce3 e2a0      	LDI  R26,LOW(32)
000ce4 dfec      	RCALL _read_calibration_byte
000ce5 93e0 020c 	STS  524,R30
                 ; 0000 048C ADCA.CALH=read_calibration_byte(PROD_SIGNATURES_START+ADCACAL1_offset);
000ce7 e2a1      	LDI  R26,LOW(33)
000ce8 dfe8      	RCALL _read_calibration_byte
000ce9 93e0 020d 	STS  525,R30
                 ; 0000 048D 
                 ; 0000 048E // Free Running mode: Off
                 ; 0000 048F // Conversion mode: Signed
                 ; 0000 0490 ADCA.CTRLB=(ADCA.CTRLB & (~(ADC_CONMODE_bm | ADC_FREERUN_bm | ADC_RESOLUTION_gm))) |
                 ; 0000 0491 	ADC_CONMODE_bm | ADC_RESOLUTION_12BIT_gc;
000ceb 91e0 0201 	LDS  R30,513
000ced 7ee1      	ANDI R30,LOW(0xE1)
000cee 61e0      	ORI  R30,0x10
000cef 93e0 0201 	STS  513,R30
                 ; 0000 0492 
                 ; 0000 0493 // Clock frequency: 2000.000 kHz
                 ; 0000 0494 ADCA.PRESCALER=(ADCA.PRESCALER & (~ADC_PRESCALER_gm)) | ADC_PRESCALER_DIV16_gc;
000cf1 91e0 0204 	LDS  R30,516
000cf3 7fe8      	ANDI R30,LOW(0xF8)
000cf4 60e2      	ORI  R30,2
000cf5 93e0 0204 	STS  516,R30
                 ; 0000 0495 
                 ; 0000 0496 // Reference:
                 ; 0000 0497 // Temperature reference: Off
                 ; 0000 0498 ADCA.REFCTRL=(ADCA.REFCTRL & ((~(ADC_REFSEL_gm | ADC_TEMPREF_bm)) | ADC_BANDGAP_bm)) |
                 ; 0000 0499 	ADC_REFSEL_AREFA_gc;
000cf7 91e0 0202 	LDS  R30,514
000cf9 7cee      	ANDI R30,LOW(0xCE)
000cfa 62e0      	ORI  R30,0x20
000cfb 93e0 0202 	STS  514,R30
                 ; 0000 049A 
                 ; 0000 049B     // Read and save the ADC offset using channel 0
                 ; 0000 049C     ADCA.CH0.CTRL=(ADCA.CH0.CTRL & (~(ADC_CH_START_bm | ADC_CH_GAINFAC_gm | ADC_CH_INPUTMODE_gm))) |
                 ; 0000 049D     	gain | ADC_CH_INPUTMODE_DIFF_gc;
000cfd 91e0 0220 	LDS  R30,544
000cff 76e0      	ANDI R30,LOW(0x60)
000d00 81ac      	LDD  R26,Y+4
000d01 2bea      	OR   R30,R26
000d02 60e2      	ORI  R30,2
000d03 93e0 0220 	STS  544,R30
                 ; 0000 049E     ADCA.CH0.MUXCTRL=(ADCA.CH0.MUXCTRL & (~(ADC_CH_MUXPOS_gm | ADC_CH_MUXNEG_gm))) |
                 ; 0000 049F     	ADC_CH_MUXPOS_PIN0_gc | ADC_CH_MUXNEG_PIN0_gc;
000d05 91e0 0221 	LDS  R30,545
000d07 78e4      	ANDI R30,LOW(0x84)
000d08 93e0 0221 	STS  545,R30
                 ; 0000 04A0     // Enable the ADC in order to read the offset
                 ; 0000 04A1     ADCA.CTRLA|=ADC_ENABLE_bm;
000d0a 91e0 0200 	LDS  R30,512
000d0c 60e1      	ORI  R30,1
000d0d 93e0 0200 	STS  512,R30
                 ; 0000 04A2     // Insert a delay to allow the ADC common mode voltage to stabilize
                 ; 0000 04A3     delay_us(5);
                +
000d0f e385     +LDI R24 , LOW ( 53 )
                +__DELAY_USB_LOOP :
000d10 958a     +DEC R24
000d11 f7f1     +BRNE __DELAY_USB_LOOP
                 	__DELAY_USB 53
                 ; 0000 04A4     // Perform several offset measurements and store the mean value
                 ; 0000 04A5     offs=0;
                +
000d12 e020     +LDI R18 , LOW ( 0 )
000d13 e030     +LDI R19 , HIGH ( 0 )
                 	__GETWRN 18,19,0
                 ; 0000 04A6     for (i=0; i<16; i++)
000d14 e010      	LDI  R17,LOW(0)
                 _0xA:
000d15 3110      	CPI  R17,16
000d16 f4a8      	BRSH _0xB
                 ; 0000 04A7     {
                 ; 0000 04A8         // Start the AD conversion on channel 0
                 ; 0000 04A9         ADCA.CH0.CTRL|=ADC_CH_START_bm;
000d17 91e0 0220 	LDS  R30,544
000d19 68e0      	ORI  R30,0x80
000d1a 93e0 0220 	STS  544,R30
                 ; 0000 04AA         // Wait for the AD conversion to complete
                 ; 0000 04AB         while ((ADCA.CH0.INTFLAGS & ADC_CH_CHIF_bm)==0);
                 _0xC:
000d1c 91e0 0223 	LDS  R30,547
000d1e 70e1      	ANDI R30,LOW(0x1)
000d1f f3e1      	BREQ _0xC
                 ; 0000 04AC         // Clear the interrupt flag
                 ; 0000 04AD         ADCA.CH0.INTFLAGS=ADC_CH_CHIF_bm;
000d20 e0e1      	LDI  R30,LOW(1)
000d21 93e0 0223 	STS  547,R30
                 ; 0000 04AE         // Read the offset
                 ; 0000 04AF         offs+=(signed char) ADCA.CH0.RES;
000d23 91e0 0224 	LDS  R30,548
000d25 e0f0      	LDI  R31,0
000d26 fde7      	SBRC R30,7
000d27 efff      	SER  R31
                +
000d28 0f2e     +ADD R18 , R30
000d29 1f3f     +ADC R19 , R31
                 	__ADDWRR 18,19,30,31
                 ; 0000 04B0     }
000d2a 5f1f      	SUBI R17,-1
000d2b cfe9      	RJMP _0xA
                 _0xB:
                 ; 0000 04B1     // Disable the ADC
                 ; 0000 04B2     ADCA.CTRLA&= ~ADC_ENABLE_bm;
000d2c 91e0 0200 	LDS  R30,512
000d2e 7fee      	ANDI R30,0xFE
000d2f 93e0 0200 	STS  512,R30
                 ; 0000 04B3     // Store the mean value of the offset
                 ; 0000 04B4     adca_offset=(signed char) (offs >> 4);
000d31 01f9      	MOVW R30,R18
000d32 940e 20b8 	CALL __ASRW4
000d34 e0f0      	LDI  R31,0
000d35 e0f0      	LDI  R31,0
000d36 fde7      	SBRC R30,7
000d37 efff      	SER  R31
000d38 012f      	MOVW R4,R30
                 ; 0000 04B5 
                 ; 0000 04B6 // Initialize the ADC Compare register
                 ; 0000 04B7 ADCA.CMPL=0x00;
000d39 e0e0      	LDI  R30,LOW(0)
000d3a 93e0 0218 	STS  536,R30
                 ; 0000 04B8 ADCA.CMPH=0x00;
000d3c 93e0 0219 	STS  537,R30
                 ; 0000 04B9 
                 ; 0000 04BA // ADC channel 0 gain: 1
                 ; 0000 04BB // ADC channel 0 input mode: Differential input signal with gain
                 ; 0000 04BC //ADCA.CH0.CTRL=(ADCA.CH0.CTRL & (~(ADC_CH_START_bm | ADC_CH_GAINFAC_gm | ADC_CH_INPUTMODE_gm))) |
                 ; 0000 04BD //	ADC_CH_GAIN_1X_gc | ADC_CH_INPUTMODE_DIFFWGAIN_gc;
                 ; 0000 04BE ADCA.CH0.CTRL=(ADCA.CH0.CTRL & (~(ADC_CH_START_bm | ADC_CH_GAINFAC_gm | ADC_CH_INPUTMODE_gm))) |
                 ; 0000 04BF 	gain | ADC_CH_INPUTMODE_DIFFWGAIN_gc;
000d3e 91e0 0220 	LDS  R30,544
000d40 76e0      	ANDI R30,LOW(0x60)
000d41 81ac      	LDD  R26,Y+4
000d42 2bea      	OR   R30,R26
000d43 60e3      	ORI  R30,LOW(0x3)
000d44 93e0 0220 	STS  544,R30
                 ; 0000 04C0 
                 ; 0000 04C1 // ADC channel 0 positive input: ADC2 pin
                 ; 0000 04C2 // ADC channel 0 negative input: ADC5 pin
                 ; 0000 04C3 ADCA.CH0.MUXCTRL=(ADCA.CH0.MUXCTRL & (~(ADC_CH_MUXPOS_gm | ADC_CH_MUXNEG_gm))) |
                 ; 0000 04C4 	ADC_CH_MUXPOS_PIN2_gc | ADC_CH_MUXNEG_PIN5_gc;
000d46 91e0 0221 	LDS  R30,545
000d48 78e4      	ANDI R30,LOW(0x84)
000d49 61e5      	ORI  R30,LOW(0x15)
000d4a 93e0 0221 	STS  545,R30
                 ; 0000 04C5 
                 ; 0000 04C6 // AD conversion is started by the event system
                 ; 0000 04C7 // Event channel(s): 7 trigger(s) ADC channel(s): 0
                 ; 0000 04C8 ADCA.EVCTRL=ADC_EVSEL_7_gc | ADC_EVACT_CH0_gc;
000d4c e3e9      	LDI  R30,LOW(57)
000d4d 93e0 0203 	STS  515,R30
                 ; 0000 04C9 
                 ; 0000 04CA // Channel 0 interrupt: Disabled
                 ; 0000 04CB ADCA.CH0.INTCTRL=(ADCA.CH0.INTCTRL & (~(ADC_CH_INTMODE_gm | ADC_CH_INTLVL_gm))) |
                 ; 0000 04CC 	ADC_CH_INTMODE_COMPLETE_gc | ADC_CH_INTLVL_OFF_gc;
000d4f 91e0 0222 	LDS  R30,546
000d51 7fe0      	ANDI R30,LOW(0xF0)
000d52 93e0 0222 	STS  546,R30
                 ; 0000 04CD // Channel 1 interrupt: Disabled
                 ; 0000 04CE ADCA.CH1.INTCTRL&= ~(ADC_CH_INTMODE_gm | ADC_CH_INTLVL_gm);
000d54 91e0 022a 	LDS  R30,554
000d56 7fe0      	ANDI R30,LOW(0xF0)
000d57 93e0 022a 	STS  554,R30
                 ; 0000 04CF // Channel 2 interrupt: Disabled
                 ; 0000 04D0 ADCA.CH2.INTCTRL&= ~(ADC_CH_INTMODE_gm | ADC_CH_INTLVL_gm);
000d59 91e0 0232 	LDS  R30,562
000d5b 7fe0      	ANDI R30,LOW(0xF0)
000d5c 93e0 0232 	STS  562,R30
                 ; 0000 04D1 // Channel 3 interrupt: Disabled
                 ; 0000 04D2 ADCA.CH3.INTCTRL&= ~(ADC_CH_INTMODE_gm | ADC_CH_INTLVL_gm);
000d5e 91e0 023a 	LDS  R30,570
000d60 7fe0      	ANDI R30,LOW(0xF0)
000d61 93e0 023a 	STS  570,R30
                 ; 0000 04D3 
                 ; 0000 04D4 // Enable the ADC
                 ; 0000 04D5 ADCA.CTRLA|=ADC_ENABLE_bm;
000d63 91e0 0200 	LDS  R30,512
000d65 60e1      	ORI  R30,1
000d66 93e0 0200 	STS  512,R30
                 ; 0000 04D6 // Insert a delay to allow the ADC common mode voltage to stabilize
                 ; 0000 04D7 delay_us(2);
                +
000d68 e185     +LDI R24 , LOW ( 21 )
                +__DELAY_USB_LOOP :
000d69 958a     +DEC R24
000d6a f7f1     +BRNE __DELAY_USB_LOOP
                 	__DELAY_USB 21
                 ; 0000 04D8 }
000d6b 940e 21e0 	CALL __LOADLOCR4
000d6d 9625      	ADIW R28,5
000d6e 9508      	RET
                 ;
                 ;inline void dma_controller_reset (void)
                 ; 0000 04DB {
                 _dma_controller_reset:
                 ; 0000 04DC     DMA.CTRL = 0b00000000;
000d6f e0e0      	LDI  R30,LOW(0)
000d70 93e0 0100 	STS  256,R30
                 ; 0000 04DD     while (DMA.CTRL & 0b10000000);
                 _0xF:
000d72 91e0 0100 	LDS  R30,256
000d74 78e0      	ANDI R30,LOW(0x80)
000d75 f7e1      	BRNE _0xF
                 ; 0000 04DE     DMA.CTRL = 0b01000000;
000d76 e4e0      	LDI  R30,LOW(64)
000d77 93e0 0100 	STS  256,R30
                 ; 0000 04DF     while (DMA.CTRL & 0b01000000);
                 _0x12:
000d79 91e0 0100 	LDS  R30,256
000d7b 74e0      	ANDI R30,LOW(0x40)
000d7c f7e1      	BRNE _0x12
                 ; 0000 04E0 }
000d7d 9508      	RET
                 ;inline void dma_channel0_reset (void)
                 ; 0000 04E2 {
                 _dma_channel0_reset:
                 ; 0000 04E3     DMA.CH0.CTRLA = 0b00000000;
000d7e e0e0      	LDI  R30,LOW(0)
000d7f 93e0 0110 	STS  272,R30
                 ; 0000 04E4     while (DMA.CH0.CTRLA & 0b10000000);
                 _0x15:
000d81 91e0 0110 	LDS  R30,272
000d83 78e0      	ANDI R30,LOW(0x80)
000d84 f7e1      	BRNE _0x15
                 ; 0000 04E5     DMA.CH0.CTRLA = 0b01000000;
000d85 e4e0      	LDI  R30,LOW(64)
000d86 93e0 0110 	STS  272,R30
                 ; 0000 04E6     while (DMA.CH0.CTRLA & 0b01000000);
                 _0x18:
000d88 91e0 0110 	LDS  R30,272
000d8a 74e0      	ANDI R30,LOW(0x40)
000d8b f7e1      	BRNE _0x18
                 ; 0000 04E7 }
000d8c 9508      	RET
                 ;inline void dma_channel1_reset (void)
                 ; 0000 04E9 {
                 _dma_channel1_reset:
                 ; 0000 04EA     DMA.CH1.CTRLA = 0b00000000;
000d8d e0e0      	LDI  R30,LOW(0)
000d8e 93e0 0120 	STS  288,R30
                 ; 0000 04EB     while (DMA.CH1.CTRLA & 0b10000000);
                 _0x1B:
000d90 91e0 0120 	LDS  R30,288
000d92 78e0      	ANDI R30,LOW(0x80)
000d93 f7e1      	BRNE _0x1B
                 ; 0000 04EC     DMA.CH1.CTRLA = 0b01000000;
000d94 e4e0      	LDI  R30,LOW(64)
000d95 93e0 0120 	STS  288,R30
                 ; 0000 04ED     while (DMA.CH1.CTRLA & 0b01000000);
                 _0x1E:
000d97 91e0 0120 	LDS  R30,288
000d99 74e0      	ANDI R30,LOW(0x40)
000d9a f7e1      	BRNE _0x1E
                 ; 0000 04EE }
000d9b 9508      	RET
                 ;// Direct Memory Access (DMA) initialization (copies ADC output to adc data vector without CPU overhead)
                 ;inline void dma_disable (void)
                 ; 0000 04F1 {
                 _dma_disable:
                 ; 0000 04F2     dma_controller_reset();
000d9c dfd2      	RCALL _dma_controller_reset
                 ; 0000 04F3     dma_channel0_reset();
000d9d dfe0      	RCALL _dma_channel0_reset
                 ; 0000 04F4     dma_channel1_reset();
000d9e dfee      	RCALL _dma_channel1_reset
                 ; 0000 04F5 }
000d9f 9508      	RET
                 ;inline void dma_init (void)
                 ; 0000 04F7 {
                 _dma_init:
                 ; 0000 04F8     DMA.CH0.ADDRCTRL = 0b00000101;
000da0 e0e5      	LDI  R30,LOW(5)
000da1 93e0 0112 	STS  274,R30
                 ; 0000 04F9     DMA.CH0.TRIGSRC = 0x10 + 0x00;
000da3 e1e0      	LDI  R30,LOW(16)
000da4 93e0 0113 	STS  275,R30
                 ; 0000 04FA     DMA.CH0.TRFCNT = fft_N;
000da6 e0e0      	LDI  R30,LOW(512)
000da7 e0f2      	LDI  R31,HIGH(512)
000da8 93e0 0114 	STS  276,R30
000daa 93f0 0115 	STS  276+1,R31
                 ; 0000 04FB     DMA.CH0.REPCNT = 0x01;
000dac e0e1      	LDI  R30,LOW(1)
000dad 93e0 0116 	STS  278,R30
                 ; 0000 04FC     DMA.CH0.SRCADDR = ((unsigned long)(&ADCA.CH0.RESH));
                +
000daf e2e5     +LDI R30 , LOW ( 0x225 )
000db0 e0f2     +LDI R31 , HIGH ( 0x225 )
000db1 e060     +LDI R22 , BYTE3 ( 0x225 )
000db2 e070     +LDI R23 , BYTE4 ( 0x225 )
                 	__GETD1N 0x225
000db3 93e0 0118 	STS  280,R30
000db5 93f0 0119 	STS  280+1,R31
000db7 9360 011a 	STS  280+2,R22
000db9 9370 011b 	STS  280+3,R23
                 ; 0000 04FD     DMA.CH0.DESTADDR = ((unsigned long)(&(fft_adc.adc_bytes[3*fft_N])));
                +
000dbb e0e0     +LDI R30 , LOW ( _fft_adc + ( 1536 ) )
000dbc e2fe     +LDI R31 , HIGH ( _fft_adc + ( 1536 ) )
                 	__POINTW1MN _fft_adc,1536
000dbd 2766      	CLR  R22
000dbe 2777      	CLR  R23
000dbf 93e0 011c 	STS  284,R30
000dc1 93f0 011d 	STS  284+1,R31
000dc3 9360 011e 	STS  284+2,R22
000dc5 9370 011f 	STS  284+3,R23
                 ; 0000 04FE     DMA.CH0.CTRLB = 0b00000011;
000dc7 e0e3      	LDI  R30,LOW(3)
000dc8 93e0 0111 	STS  273,R30
                 ; 0000 04FF     DMA.CH0.CTRLA = 0b10000000;
000dca e8e0      	LDI  R30,LOW(128)
000dcb 93e0 0110 	STS  272,R30
                 ; 0000 0500     DMA.CH1.ADDRCTRL = 0b00000101;
000dcd e0e5      	LDI  R30,LOW(5)
000dce 93e0 0122 	STS  290,R30
                 ; 0000 0501     DMA.CH1.TRIGSRC = 0x10 + 0x00;
000dd0 e1e0      	LDI  R30,LOW(16)
000dd1 93e0 0123 	STS  291,R30
                 ; 0000 0502     DMA.CH1.TRFCNT = fft_N;
000dd3 e0e0      	LDI  R30,LOW(512)
000dd4 e0f2      	LDI  R31,HIGH(512)
000dd5 93e0 0124 	STS  292,R30
000dd7 93f0 0125 	STS  292+1,R31
                 ; 0000 0503     DMA.CH1.REPCNT = 0x01;
000dd9 e0e1      	LDI  R30,LOW(1)
000dda 93e0 0126 	STS  294,R30
                 ; 0000 0504     DMA.CH1.SRCADDR = ((unsigned long)(&ADCA.CH0.RESL));
                +
000ddc e2e4     +LDI R30 , LOW ( 0x224 )
000ddd e0f2     +LDI R31 , HIGH ( 0x224 )
000dde e060     +LDI R22 , BYTE3 ( 0x224 )
000ddf e070     +LDI R23 , BYTE4 ( 0x224 )
                 	__GETD1N 0x224
000de0 93e0 0128 	STS  296,R30
000de2 93f0 0129 	STS  296+1,R31
000de4 9360 012a 	STS  296+2,R22
000de6 9370 012b 	STS  296+3,R23
                 ; 0000 0505     DMA.CH1.DESTADDR = ((unsigned long)(&(fft_adc.adc_bytes[2*fft_N])));
                +
000de8 e0e0     +LDI R30 , LOW ( _fft_adc + ( 1024 ) )
000de9 e2fc     +LDI R31 , HIGH ( _fft_adc + ( 1024 ) )
                 	__POINTW1MN _fft_adc,1024
000dea 2766      	CLR  R22
000deb 2777      	CLR  R23
000dec 93e0 012c 	STS  300,R30
000dee 93f0 012d 	STS  300+1,R31
000df0 9360 012e 	STS  300+2,R22
000df2 9370 012f 	STS  300+3,R23
                 ; 0000 0506     DMA.CH1.CTRLB = 0b00000011;
000df4 e0e3      	LDI  R30,LOW(3)
000df5 93e0 0121 	STS  289,R30
                 ; 0000 0507     DMA.CH1.CTRLA = 0b10000000;
000df7 e8e0      	LDI  R30,LOW(128)
000df8 93e0 0120 	STS  288,R30
                 ; 0000 0508     DMA.CTRL = 0b10000011;
000dfa e8e3      	LDI  R30,LOW(131)
000dfb 93e0 0100 	STS  256,R30
                 ; 0000 0509 }
000dfd 9508      	RET
                 ;
                 ;#define SAMPLING_STATE_IDLE     0
                 ;#define SAMPLING_STATE_SAMPLING 1
                 ;#define SAMPLING_STATE_FFT      2
                 ;#define SAMPLING_STATE_UPDATING 3
                 ;
                 ;unsigned char sampling_state = SAMPLING_STATE_IDLE;
                 ;
                 ;
                 ;unsigned char dma_1st_int = 0;
                 ;// Timer/counter TCD0 Overflow/Underflow interrupt service routine
                 ;interrupt [TCD0_OVF_vect] void tcd0_overflow_isr(void)
                 ; 0000 0516 {
                 _tcd0_overflow_isr:
000dfe 920a      	ST   -Y,R0
000dff 921a      	ST   -Y,R1
000e00 92fa      	ST   -Y,R15
000e01 936a      	ST   -Y,R22
000e02 937a      	ST   -Y,R23
000e03 938a      	ST   -Y,R24
000e04 939a      	ST   -Y,R25
000e05 93aa      	ST   -Y,R26
000e06 93ba      	ST   -Y,R27
000e07 93ea      	ST   -Y,R30
000e08 93fa      	ST   -Y,R31
000e09 b7ef      	IN   R30,SREG
000e0a 93ea      	ST   -Y,R30
                 ; 0000 0517 // write your code here
                 ; 0000 0518     if (sampling_state == SAMPLING_STATE_IDLE)
000e0b 2022      	TST  R2
000e0c f429      	BRNE _0x21
                 ; 0000 0519     {
                 ; 0000 051A         dma_init();
000e0d df92      	RCALL _dma_init
                 ; 0000 051B         sampling_enable();
000e0e de8b      	RCALL _sampling_enable
                 ; 0000 051C         sampling_state = SAMPLING_STATE_SAMPLING;
000e0f e0e1      	LDI  R30,LOW(1)
000e10 2e2e      	MOV  R2,R30
                 ; 0000 051D         dma_1st_int = 0;
000e11 2477      	CLR  R7
                 ; 0000 051E     }
                 ; 0000 051F }
                 _0x21:
000e12 91e9      	LD   R30,Y+
000e13 bfef      	OUT  SREG,R30
000e14 91f9      	LD   R31,Y+
000e15 91e9      	LD   R30,Y+
000e16 91b9      	LD   R27,Y+
000e17 91a9      	LD   R26,Y+
000e18 9199      	LD   R25,Y+
000e19 9189      	LD   R24,Y+
000e1a 9179      	LD   R23,Y+
000e1b 9169      	LD   R22,Y+
000e1c 90f9      	LD   R15,Y+
000e1d 9019      	LD   R1,Y+
000e1e 9009      	LD   R0,Y+
000e1f 9518      	RETI
                 ;
                 ;// DMA channel1 transaction complete interrupt service routine
                 ;interrupt [DMA_CH1_vect] void dma_ch1_isr (void)
                 ; 0000 0523 {
                 _dma_ch1_isr:
000e20 920a      	ST   -Y,R0
000e21 921a      	ST   -Y,R1
000e22 92fa      	ST   -Y,R15
000e23 936a      	ST   -Y,R22
000e24 937a      	ST   -Y,R23
000e25 938a      	ST   -Y,R24
000e26 939a      	ST   -Y,R25
000e27 93aa      	ST   -Y,R26
000e28 93ba      	ST   -Y,R27
000e29 93ea      	ST   -Y,R30
000e2a 93fa      	ST   -Y,R31
000e2b b7ef      	IN   R30,SREG
000e2c 93ea      	ST   -Y,R30
                 ; 0000 0524     if (dma_1st_int)
000e2d 2077      	TST  R7
000e2e f021      	BREQ _0x22
                 ; 0000 0525     {
                 ; 0000 0526         sampling_disable();
000e2f de5e      	RCALL _sampling_disable
                 ; 0000 0527         dma_disable();
000e30 df6b      	RCALL _dma_disable
                 ; 0000 0528         sampling_state = SAMPLING_STATE_FFT;
000e31 e0e2      	LDI  R30,LOW(2)
000e32 2e2e      	MOV  R2,R30
                 ; 0000 0529     }
                 ; 0000 052A     dma_1st_int = 1;
                 _0x22:
000e33 c013      	RJMP _0xC0
                 ; 0000 052B }
                 ;
                 ;// DMA channel0 transaction complete interrupt service routine
                 ;interrupt [DMA_CH0_vect] void dma_ch0_isr (void)
                 ; 0000 052F {
                 _dma_ch0_isr:
000e34 920a      	ST   -Y,R0
000e35 921a      	ST   -Y,R1
000e36 92fa      	ST   -Y,R15
000e37 936a      	ST   -Y,R22
000e38 937a      	ST   -Y,R23
000e39 938a      	ST   -Y,R24
000e3a 939a      	ST   -Y,R25
000e3b 93aa      	ST   -Y,R26
000e3c 93ba      	ST   -Y,R27
000e3d 93ea      	ST   -Y,R30
000e3e 93fa      	ST   -Y,R31
000e3f b7ef      	IN   R30,SREG
000e40 93ea      	ST   -Y,R30
                 ; 0000 0530     if (dma_1st_int)
000e41 2077      	TST  R7
000e42 f021      	BREQ _0x23
                 ; 0000 0531     {
                 ; 0000 0532         sampling_disable();
000e43 de4a      	RCALL _sampling_disable
                 ; 0000 0533         dma_disable();
000e44 df57      	RCALL _dma_disable
                 ; 0000 0534         sampling_state = SAMPLING_STATE_FFT;
000e45 e0e2      	LDI  R30,LOW(2)
000e46 2e2e      	MOV  R2,R30
                 ; 0000 0535     }
                 ; 0000 0536     dma_1st_int = 1;
                 _0x23:
                 _0xC0:
000e47 e0e1      	LDI  R30,LOW(1)
000e48 2e7e      	MOV  R7,R30
                 ; 0000 0537 }
000e49 91e9      	LD   R30,Y+
000e4a bfef      	OUT  SREG,R30
000e4b 91f9      	LD   R31,Y+
000e4c 91e9      	LD   R30,Y+
000e4d 91b9      	LD   R27,Y+
000e4e 91a9      	LD   R26,Y+
000e4f 9199      	LD   R25,Y+
000e50 9189      	LD   R24,Y+
000e51 9179      	LD   R23,Y+
000e52 9169      	LD   R22,Y+
000e53 90f9      	LD   R15,Y+
000e54 9019      	LD   R1,Y+
000e55 9009      	LD   R0,Y+
000e56 9518      	RETI
                 ;
                 ;//______________________________________________________________DAC_FUNCTIONS_&_VARIABLES_&_INTERRUPTS__________________________
                 ;
                 ;// Timer/Counter TCE0 initialization
                 ;void tce0_init(void)
                 ; 0000 053D {
                 _tce0_init:
                 ; 0000 053E unsigned char s;
                 ; 0000 053F unsigned char n;
                 ; 0000 0540 
                 ; 0000 0541 // Note: the correct PORTE direction for the Compare Channels outputs
                 ; 0000 0542 // is configured in the ports_init function
                 ; 0000 0543 
                 ; 0000 0544 // Save interrupts enabled/disabled state
                 ; 0000 0545 s=SREG;
000e57 931a      	ST   -Y,R17
000e58 930a      	ST   -Y,R16
                 ;	s -> R17
                 ;	n -> R16
000e59 b71f      	IN   R17,63
                 ; 0000 0546 // Disable interrupts
                 ; 0000 0547 #asm("cli")
000e5a 94f8      	cli
                 ; 0000 0548 
                 ; 0000 0549 // Disable and reset the timer/counter just to be sure
                 ; 0000 054A tc0_disable(&TCE0);
000e5b e0a0      	LDI  R26,LOW(2560)
000e5c e0ba      	LDI  R27,HIGH(2560)
000e5d dd58      	RCALL _tc0_disable
                 ; 0000 054B // Clock source: Peripheral Clock/1
                 ; 0000 054C //TCE0.CTRLA=(TCE0.CTRLA & (~TC0_CLKSEL_gm)) | TC_CLKSEL_DIV1_gc;
                 ; 0000 054D TCE0.CTRLA = 0;
000e5e e0e0      	LDI  R30,LOW(0)
000e5f 93e0 0a00 	STS  2560,R30
                 ; 0000 054E // Mode: Normal Operation, Overflow Int./Event on TOP
                 ; 0000 054F // Compare/Capture on channel A: Off
                 ; 0000 0550 // Compare/Capture on channel B: Off
                 ; 0000 0551 // Compare/Capture on channel C: Off
                 ; 0000 0552 // Compare/Capture on channel D: Off
                 ; 0000 0553 TCE0.CTRLB=(TCE0.CTRLB & (~(TC0_CCAEN_bm | TC0_CCBEN_bm | TC0_CCCEN_bm | TC0_CCDEN_bm | TC0_WGMODE_gm))) |
                 ; 0000 0554 	TC_WGMODE_NORMAL_gc;
000e61 91e0 0a01 	LDS  R30,2561
000e63 70e8      	ANDI R30,LOW(0x8)
000e64 93e0 0a01 	STS  2561,R30
                 ; 0000 0555 
                 ; 0000 0556 // Capture event source: None
                 ; 0000 0557 // Capture event action: None
                 ; 0000 0558 TCE0.CTRLD=(TCE0.CTRLD & (~(TC0_EVACT_gm | TC0_EVSEL_gm))) |
                 ; 0000 0559 	TC_EVACT_OFF_gc | TC_EVSEL_OFF_gc;
000e66 91e0 0a03 	LDS  R30,2563
000e68 71e0      	ANDI R30,LOW(0x10)
000e69 93e0 0a03 	STS  2563,R30
                 ; 0000 055A 
                 ; 0000 055B // Overflow interrupt: Medium Level
                 ; 0000 055C // Error interrupt: Disabled
                 ; 0000 055D TCE0.INTCTRLA=(TCE0.INTCTRLA & (~(TC0_ERRINTLVL_gm | TC0_OVFINTLVL_gm))) |
                 ; 0000 055E 	TC_ERRINTLVL_OFF_gc | TC_OVFINTLVL_MED_gc;
000e6b 91e0 0a06 	LDS  R30,2566
000e6d 7fe0      	ANDI R30,LOW(0xF0)
000e6e 60e2      	ORI  R30,2
000e6f 93e0 0a06 	STS  2566,R30
                 ; 0000 055F 
                 ; 0000 0560 // Compare/Capture channel A interrupt: Disabled
                 ; 0000 0561 // Compare/Capture channel B interrupt: Disabled
                 ; 0000 0562 // Compare/Capture channel C interrupt: Disabled
                 ; 0000 0563 // Compare/Capture channel D interrupt: Disabled
                 ; 0000 0564 TCE0.INTCTRLB=(TCE0.INTCTRLB & (~(TC0_CCDINTLVL_gm | TC0_CCCINTLVL_gm | TC0_CCBINTLVL_gm | TC0_CCAINTLVL_gm))) |
                 ; 0000 0565 	TC_CCDINTLVL_OFF_gc | TC_CCCINTLVL_OFF_gc | TC_CCBINTLVL_OFF_gc | TC_CCAINTLVL_OFF_gc;
000e71 91e0 0a07 	LDS  R30,2567
000e73 70e0      	ANDI R30,LOW(0x0)
000e74 93e0 0a07 	STS  2567,R30
                 ; 0000 0566 
                 ; 0000 0567 // High resolution extension: Off
                 ; 0000 0568 HIRESE.CTRL&= ~HIRES_HREN0_bm;
000e76 91e0 0a90 	LDS  R30,2704
000e78 7fee      	ANDI R30,0xFE
000e79 93e0 0a90 	STS  2704,R30
                 ; 0000 0569 
                 ; 0000 056A // Advanced Waveform Extension initialization
                 ; 0000 056B // Optimize for speed
                 ; 0000 056C #pragma optsize-
                 ; 0000 056D // Disable locking the AWEX configuration registers just to be sure
                 ; 0000 056E n=MCU.AWEXLOCK & (~MCU_AWEXELOCK_bm);
000e7b 91e0 0099 	LDS  R30,153
000e7d 7feb      	ANDI R30,0xFB
000e7e 2f0e      	MOV  R16,R30
                 ; 0000 056F CCP=CCP_IOREG_gc;
000e7f ede8      	LDI  R30,LOW(216)
000e80 bfe4      	OUT  0x34,R30
                 ; 0000 0570 MCU.AWEXLOCK=n;
000e81 9300 0099 	STS  153,R16
                 ; 0000 0571 // Restore optimization for size if needed
                 ; 0000 0572 #pragma optsize_default
                 ; 0000 0573 
                 ; 0000 0574 // Pattern generation: Off
                 ; 0000 0575 // Dead time insertion: Off
                 ; 0000 0576 AWEXE.CTRL&= ~(AWEX_PGM_bm | AWEX_CWCM_bm | AWEX_DTICCDEN_bm | AWEX_DTICCCEN_bm | AWEX_DTICCBEN_bm | AWEX_DTICCAEN_bm);
000e83 91e0 0a80 	LDS  R30,2688
000e85 7ce0      	ANDI R30,LOW(0xC0)
000e86 93e0 0a80 	STS  2688,R30
                 ; 0000 0577 
                 ; 0000 0578 // Fault protection initialization
                 ; 0000 0579 // Fault detection on OCD Break detection: On
                 ; 0000 057A // Fault detection restart mode: Latched Mode
                 ; 0000 057B // Fault detection action: None (Fault protection disabled)
                 ; 0000 057C AWEXE.FDCTRL=(AWEXE.FDCTRL & (~(AWEX_FDDBD_bm | AWEX_FDMODE_bm | AWEX_FDACT_gm))) |
                 ; 0000 057D 	AWEX_FDACT_NONE_gc;
000e88 91e0 0a83 	LDS  R30,2691
000e8a 7ee8      	ANDI R30,LOW(0xE8)
000e8b 93e0 0a83 	STS  2691,R30
                 ; 0000 057E // Fault detect events:
                 ; 0000 057F // Event channel 0: Off
                 ; 0000 0580 // Event channel 1: Off
                 ; 0000 0581 // Event channel 2: Off
                 ; 0000 0582 // Event channel 3: Off
                 ; 0000 0583 // Event channel 4: Off
                 ; 0000 0584 // Event channel 5: Off
                 ; 0000 0585 // Event channel 6: Off
                 ; 0000 0586 // Event channel 7: Off
                 ; 0000 0587 AWEXE.FDEVMASK=0b00000000;
000e8d e0e0      	LDI  R30,LOW(0)
000e8e 93e0 0a82 	STS  2690,R30
                 ; 0000 0588 // Make sure the fault detect flag is cleared
                 ; 0000 0589 AWEXE.STATUS|=AWEXE.STATUS & AWEX_FDF_bm;
000e90 e8a4      	LDI  R26,LOW(2692)
000e91 e0ba      	LDI  R27,HIGH(2692)
000e92 2e0a      	MOV  R0,R26
000e93 91ac      	LD   R26,X
000e94 91e0 0a84 	LDS  R30,2692
000e96 70e4      	ANDI R30,LOW(0x4)
000e97 2bea      	OR   R30,R26
000e98 2da0      	MOV  R26,R0
000e99 93ec      	ST   X,R30
                 ; 0000 058A 
                 ; 0000 058B // Clear the interrupt flags
                 ; 0000 058C TCE0.INTFLAGS=TCE0.INTFLAGS;
000e9a 91e0 0a0c 	LDS  R30,2572
000e9c 93e0 0a0c 	STS  2572,R30
                 ; 0000 058D // Set counter register
                 ; 0000 058E TCE0.CNT=0x0000;
000e9e e0e0      	LDI  R30,LOW(0)
000e9f e0f0      	LDI  R31,HIGH(0)
000ea0 93e0 0a20 	STS  2592,R30
000ea2 93f0 0a21 	STS  2592+1,R31
                 ; 0000 058F // Set period register
                 ; 0000 0590 TCE0.PER=0x009F;
000ea4 e9ef      	LDI  R30,LOW(159)
000ea5 e0f0      	LDI  R31,HIGH(159)
000ea6 93e0 0a26 	STS  2598,R30
000ea8 93f0 0a27 	STS  2598+1,R31
                 ; 0000 0591 // Set channel A Compare/Capture register
                 ; 0000 0592 TCE0.CCA=0x0000;
000eaa e0e0      	LDI  R30,LOW(0)
000eab e0f0      	LDI  R31,HIGH(0)
000eac 93e0 0a28 	STS  2600,R30
000eae 93f0 0a29 	STS  2600+1,R31
                 ; 0000 0593 // Set channel B Compare/Capture register
                 ; 0000 0594 TCE0.CCB=0x0000;
000eb0 93e0 0a2a 	STS  2602,R30
000eb2 93f0 0a2b 	STS  2602+1,R31
                 ; 0000 0595 // Set channel C Compare/Capture register
                 ; 0000 0596 TCE0.CCC=0x0000;
000eb4 93e0 0a2c 	STS  2604,R30
000eb6 93f0 0a2d 	STS  2604+1,R31
                 ; 0000 0597 // Set channel D Compare/Capture register
                 ; 0000 0598 TCE0.CCD=0x0000;
000eb8 93e0 0a2e 	STS  2606,R30
000eba 93f0 0a2f 	STS  2606+1,R31
                 ; 0000 0599 
                 ; 0000 059A // Restore interrupts enabled/disabled state
                 ; 0000 059B SREG=s;
                 _0x20C0014:
000ebc bf1f      	OUT  0x3F,R17
                 ; 0000 059C }
                 _0x20C0015:
000ebd 9109      	LD   R16,Y+
000ebe 9119      	LD   R17,Y+
000ebf 9508      	RET
                 ;#define DAC_INPUT_LEN   ((unsigned int)(1 << (radix - 1)))
                 ;unsigned char dac_inputs_min[DAC_INPUT_LEN];
                 ;unsigned char dac_inputs_max[DAC_INPUT_LEN];
                 ;register unsigned char dac_x_ptr = 0;
                 ;register unsigned char dac_x_port_ptr0 = 0;
                 ;register unsigned char dac_x_port_ptr1 = 0;
                 ;register unsigned char dac_y_ptr = 0x01;
                 ;register unsigned char dac_y_max;
                 ;inline void dac_disable (void)
                 ; 0000 05A6 {
                 _dac_disable:
                 ; 0000 05A7     TCE0.CTRLA = 0x00;
000ec0 e0e0      	LDI  R30,LOW(0)
000ec1 93e0 0a00 	STS  2560,R30
                 ; 0000 05A8     dac_x_ptr = 0;
000ec3 2466      	CLR  R6
                 ; 0000 05A9     dac_x_port_ptr0 = 0;
000ec4 2499      	CLR  R9
                 ; 0000 05AA     dac_x_port_ptr1 = 0;
000ec5 2488      	CLR  R8
                 ; 0000 05AB     dac_y_ptr = 0;
000ec6 24bb      	CLR  R11
                 ; 0000 05AC     TCE0.CNT = 0x0000;
000ec7 e0e0      	LDI  R30,LOW(0)
000ec8 e0f0      	LDI  R31,HIGH(0)
000ec9 93e0 0a20 	STS  2592,R30
000ecb 93f0 0a21 	STS  2592+1,R31
                 ; 0000 05AD }
000ecd 9508      	RET
                 ;inline void dac_enable (void)
                 ; 0000 05AF {
                 _dac_enable:
                 ; 0000 05B0     TCE0.CTRLA = TC_CLKSEL_DIV1_gc;
000ece e0e1      	LDI  R30,LOW(1)
000ecf 93e0 0a00 	STS  2560,R30
                 ; 0000 05B1 }
000ed1 9508      	RET
                 ;
                 ;// Timer/Counter TCE1 initialization
                 ;void tce1_init(void)
                 ; 0000 05B5 {
                 _tce1_init:
                 ; 0000 05B6 unsigned char s;
                 ; 0000 05B7 
                 ; 0000 05B8 // Note: the correct PORTE direction for the Compare Channels outputs
                 ; 0000 05B9 // is configured in the ports_init function
                 ; 0000 05BA 
                 ; 0000 05BB // Save interrupts enabled/disabled state
                 ; 0000 05BC s=SREG;
000ed2 931a      	ST   -Y,R17
                 ;	s -> R17
000ed3 b71f      	IN   R17,63
                 ; 0000 05BD // Disable interrupts
                 ; 0000 05BE #asm("cli")
000ed4 94f8      	cli
                 ; 0000 05BF 
                 ; 0000 05C0 // Disable and reset the timer/counter just to be sure
                 ; 0000 05C1 tc1_disable(&TCE1);
000ed5 e4a0      	LDI  R26,LOW(2624)
000ed6 e0ba      	LDI  R27,HIGH(2624)
000ed7 dce9      	RCALL _tc1_disable
                 ; 0000 05C2 // Clock source: Peripheral Clock/1
                 ; 0000 05C3 //TCE1.CTRLA=(TCE1.CTRLA & (~TC1_CLKSEL_gm)) | TC_CLKSEL_DIV1_gc;
                 ; 0000 05C4 TCE1.CTRLA = 0x00;
000ed8 e0e0      	LDI  R30,LOW(0)
000ed9 93e0 0a40 	STS  2624,R30
                 ; 0000 05C5 // Mode: Normal Operation, Overflow Int./Event on TOP
                 ; 0000 05C6 // Compare/Capture on channel A: Off
                 ; 0000 05C7 // Compare/Capture on channel B: Off
                 ; 0000 05C8 TCE1.CTRLB=(TCE1.CTRLB & (~(TC1_CCAEN_bm | TC1_CCBEN_bm | TC1_WGMODE_gm))) |
                 ; 0000 05C9 	TC_WGMODE_NORMAL_gc;
000edb 91e0 0a41 	LDS  R30,2625
000edd 7ce8      	ANDI R30,LOW(0xC8)
000ede 93e0 0a41 	STS  2625,R30
                 ; 0000 05CA 
                 ; 0000 05CB // Capture event source: None
                 ; 0000 05CC // Capture event action: None
                 ; 0000 05CD TCE1.CTRLD=(TCE1.CTRLD & (~(TC1_EVACT_gm | TC1_EVSEL_gm))) |
                 ; 0000 05CE 	TC_EVACT_OFF_gc | TC_EVSEL_OFF_gc;
000ee0 91e0 0a43 	LDS  R30,2627
000ee2 71e0      	ANDI R30,LOW(0x10)
000ee3 93e0 0a43 	STS  2627,R30
                 ; 0000 05CF 
                 ; 0000 05D0 // Overflow interrupt: High Level
                 ; 0000 05D1 // Error interrupt: Disabled
                 ; 0000 05D2 TCE1.INTCTRLA=(TCE1.INTCTRLA & (~(TC1_ERRINTLVL_gm | TC1_OVFINTLVL_gm))) |
                 ; 0000 05D3 	TC_ERRINTLVL_OFF_gc | TC_OVFINTLVL_HI_gc;
000ee5 91e0 0a46 	LDS  R30,2630
000ee7 7fe0      	ANDI R30,LOW(0xF0)
000ee8 60e3      	ORI  R30,LOW(0x3)
000ee9 93e0 0a46 	STS  2630,R30
                 ; 0000 05D4 
                 ; 0000 05D5 // Compare/Capture channel A interrupt: Disabled
                 ; 0000 05D6 // Compare/Capture channel B interrupt: Disabled
                 ; 0000 05D7 TCE1.INTCTRLB=(TCE1.INTCTRLB & (~(TC1_CCBINTLVL_gm | TC1_CCAINTLVL_gm))) |
                 ; 0000 05D8 	TC_CCBINTLVL_OFF_gc | TC_CCAINTLVL_OFF_gc;
000eeb 91e0 0a47 	LDS  R30,2631
000eed 7fe0      	ANDI R30,LOW(0xF0)
000eee 93e0 0a47 	STS  2631,R30
                 ; 0000 05D9 
                 ; 0000 05DA // High resolution extension: Off
                 ; 0000 05DB HIRESE.CTRL&= ~HIRES_HREN1_bm;
000ef0 91e0 0a90 	LDS  R30,2704
000ef2 7fed      	ANDI R30,0xFD
000ef3 93e0 0a90 	STS  2704,R30
                 ; 0000 05DC 
                 ; 0000 05DD // Clear the interrupt flags
                 ; 0000 05DE TCE1.INTFLAGS=TCE1.INTFLAGS;
000ef5 91e0 0a4c 	LDS  R30,2636
000ef7 93e0 0a4c 	STS  2636,R30
                 ; 0000 05DF // Set counter register
                 ; 0000 05E0 TCE1.CNT=0x0000;
000ef9 e0e0      	LDI  R30,LOW(0)
000efa e0f0      	LDI  R31,HIGH(0)
000efb 93e0 0a60 	STS  2656,R30
000efd 93f0 0a61 	STS  2656+1,R31
                 ; 0000 05E1 // Set period register
                 ; 0000 05E2 TCE1.PER=0x07F;
000eff e7ef      	LDI  R30,LOW(127)
000f00 e0f0      	LDI  R31,HIGH(127)
000f01 93e0 0a66 	STS  2662,R30
000f03 93f0 0a67 	STS  2662+1,R31
                 ; 0000 05E3 // Set channel A Compare/Capture register
                 ; 0000 05E4 TCE1.CCA=0x0000;
000f05 e0e0      	LDI  R30,LOW(0)
000f06 e0f0      	LDI  R31,HIGH(0)
000f07 93e0 0a68 	STS  2664,R30
000f09 93f0 0a69 	STS  2664+1,R31
                 ; 0000 05E5 // Set channel B Compare/Capture register
                 ; 0000 05E6 TCE1.CCB=0x0000;
000f0b 93e0 0a6a 	STS  2666,R30
000f0d 93f0 0a6b 	STS  2666+1,R31
                 ; 0000 05E7 
                 ; 0000 05E8 // Restore interrupts enabled/disabled state
                 ; 0000 05E9 SREG=s;
000f0f c0e6      	RJMP _0x20C0012
                 ; 0000 05EA }
                 ;inline void calibration_disable (void)
                 ; 0000 05EC {
                 _calibration_disable:
                 ; 0000 05ED     TCE1.CTRLA = 0x00;
000f10 e0e0      	LDI  R30,LOW(0)
000f11 c001      	RJMP _0x20C0013
                 ; 0000 05EE }
                 ;inline void calibration_enable (void)
                 ; 0000 05F0 {
                 _calibration_enable:
                 ; 0000 05F1     TCE1.CTRLA = TC_CLKSEL_DIV1_gc;
000f12 e0e1      	LDI  R30,LOW(1)
                 _0x20C0013:
000f13 93e0 0a40 	STS  2624,R30
                 ; 0000 05F2 }
000f15 9508      	RET
                 ;
                 ;// Timer/counter TCE0 Overflow/Underflow interrupt service routine
                 ;interrupt [TCE0_OVF_vect] void tce0_overflow_isr(void)
                 ; 0000 05F6 {
                 _tce0_overflow_isr:
000f16 93ea      	ST   -Y,R30
000f17 93fa      	ST   -Y,R31
000f18 b7ef      	IN   R30,SREG
000f19 93ea      	ST   -Y,R30
                 ; 0000 05F7     PORTK.OUT = dac_y_ptr;
000f1a 92b0 0724 	STS  1828,R11
                 ; 0000 05F8     PORTJ.OUT = dac_x_port_ptr1;
000f1c 9280 0704 	STS  1796,R8
                 ; 0000 05F9     PORTH.OUT = dac_x_port_ptr0;
000f1e 9290 06e4 	STS  1764,R9
                 ; 0000 05FA     dac_y_ptr++;
000f20 94b3      	INC  R11
                 ; 0000 05FB     if (dac_y_ptr >= dac_y_max)
000f21 14ba      	CP   R11,R10
000f22 f090      	BRLO _0x24
                 ; 0000 05FC     {
                 ; 0000 05FD         dac_x_ptr++;
000f23 9463      	INC  R6
                 ; 0000 05FE 
                 ; 0000 05FF //        dac_x_port_ptr0 = (dac_x_ptr << 4) & 0xF0;
                 ; 0000 0600 //        dac_x_port_ptr1 = (dac_x_ptr >> 4) & 0x0F;
                 ; 0000 0601         dac_x_port_ptr0 = dac_x_ptr;
000f24 2c96      	MOV  R9,R6
                 ; 0000 0602 #asm
                 ; 0000 0603         swap    R9 ; swap dac_x_port_ptr0
000f25 9492              swap    R9 ; swap dac_x_port_ptr0
                 ; 0000 0604 #endasm
                 ; 0000 0605         dac_x_port_ptr1 = dac_x_port_ptr0;
000f26 2c89      	MOV  R8,R9
                 ; 0000 0606         dac_x_port_ptr0 &= 0xF0;
000f27 efe0      	LDI  R30,LOW(240)
000f28 229e      	AND  R9,R30
                 ; 0000 0607         dac_x_port_ptr1 &= 0x0F;
000f29 e0ef      	LDI  R30,LOW(15)
000f2a 228e      	AND  R8,R30
                 ; 0000 0608         dac_y_ptr = dac_inputs_min[dac_x_ptr];
000f2b 2de6      	MOV  R30,R6
000f2c e0f0      	LDI  R31,0
000f2d 50e0      	SUBI R30,LOW(-_dac_inputs_min)
000f2e 4cf8      	SBCI R31,HIGH(-_dac_inputs_min)
000f2f 80b0      	LD   R11,Z
                 ; 0000 0609         dac_y_max = dac_inputs_max[dac_x_ptr];
000f30 2de6      	MOV  R30,R6
000f31 e0f0      	LDI  R31,0
000f32 50e0      	SUBI R30,LOW(-_dac_inputs_max)
000f33 4cf7      	SBCI R31,HIGH(-_dac_inputs_max)
000f34 80a0      	LD   R10,Z
                 ; 0000 060A     }
                 ; 0000 060B }
                 _0x24:
000f35 91e9      	LD   R30,Y+
000f36 bfef      	OUT  SREG,R30
000f37 91f9      	LD   R31,Y+
000f38 91e9      	LD   R30,Y+
000f39 9518      	RETI
                 ;
                 ;
                 ;// Timer/counter TCE1 Overflow/Underflow interrupt service routine
                 ;interrupt [TCE1_OVF_vect] void tce1_overflow_isr(void)
                 ; 0000 0610 {
                 _tce1_overflow_isr:
000f3a 93aa      	ST   -Y,R26
000f3b 93ba      	ST   -Y,R27
000f3c 93ea      	ST   -Y,R30
000f3d 93fa      	ST   -Y,R31
000f3e b7ef      	IN   R30,SREG
000f3f 93ea      	ST   -Y,R30
                 ; 0000 0611 // write your code here
                 ; 0000 0612     static unsigned char state = 0;
                 ; 0000 0613     static union _char2int_
                 ; 0000 0614     {
                 ; 0000 0615         unsigned int i;
                 ; 0000 0616         unsigned char c[2];
                 ; 0000 0617     } x_val = {0}, y_val = {0};
                 ; 0000 0618     PORTJ.OUT = y_val.c[1] | x_val.c[0];
                +
000f40 91e0 3a04+LDS R30 , _y_val_S000001D000 + ( 1 )
                 	__GETB1MN _y_val_S000001D000,1
000f42 91a0 3a01 	LDS  R26,_x_val_S000001D000
000f44 2bea      	OR   R30,R26
000f45 93e0 0704 	STS  1796,R30
                 ; 0000 0619     PORTH.OUT = y_val.c[0];
000f47 91e0 3a03 	LDS  R30,_y_val_S000001D000
000f49 93e0 06e4 	STS  1764,R30
                 ; 0000 061A     PORTK.OUT = x_val.c[1];
                +
000f4b 91e0 3a02+LDS R30 , _x_val_S000001D000 + ( 1 )
                 	__GETB1MN _x_val_S000001D000,1
000f4d 93e0 0724 	STS  1828,R30
                 ; 0000 061B     switch (state)
000f4f 91e0 3a00 	LDS  R30,_state_S000001D000
000f51 e0f0      	LDI  R31,0
                 ; 0000 061C     {
                 ; 0000 061D     case 0:
000f52 9730      	SBIW R30,0
000f53 f489      	BRNE _0x28
                 ; 0000 061E         if (++y_val.i == 0x0FFF)
000f54 91a0 3a03 	LDS  R26,_y_val_S000001D000
000f56 91b0 3a04 	LDS  R27,_y_val_S000001D000+1
000f58 9611      	ADIW R26,1
000f59 93a0 3a03 	STS  _y_val_S000001D000,R26
000f5b 93b0 3a04 	STS  _y_val_S000001D000+1,R27
000f5d 3faf      	CPI  R26,LOW(0xFFF)
000f5e e0ef      	LDI  R30,HIGH(0xFFF)
000f5f 07be      	CPC  R27,R30
000f60 f419      	BRNE _0x29
                 ; 0000 061F             state = 1;
000f61 e0e1      	LDI  R30,LOW(1)
000f62 93e0 3a00 	STS  _state_S000001D000,R30
                 ; 0000 0620         break;
                 _0x29:
000f64 c042      	RJMP _0x27
                 ; 0000 0621     case 1:
                 _0x28:
000f65 30e1      	CPI  R30,LOW(0x1)
000f66 e0a0      	LDI  R26,HIGH(0x1)
000f67 07fa      	CPC  R31,R26
000f68 f4a9      	BRNE _0x2A
                 ; 0000 0622         x_val.i += 0x10;
000f69 91e0 3a01 	LDS  R30,_x_val_S000001D000
000f6b 91f0 3a02 	LDS  R31,_x_val_S000001D000+1
000f6d 9670      	ADIW R30,16
000f6e 93e0 3a01 	STS  _x_val_S000001D000,R30
000f70 93f0 3a02 	STS  _x_val_S000001D000+1,R31
                 ; 0000 0623         if (x_val.i == 0xFFF0)
000f72 91a0 3a01 	LDS  R26,_x_val_S000001D000
000f74 91b0 3a02 	LDS  R27,_x_val_S000001D000+1
000f76 3fa0      	CPI  R26,LOW(0xFFF0)
000f77 efef      	LDI  R30,HIGH(0xFFF0)
000f78 07be      	CPC  R27,R30
000f79 f419      	BRNE _0x2B
                 ; 0000 0624             state = 2;
000f7a e0e2      	LDI  R30,LOW(2)
000f7b 93e0 3a00 	STS  _state_S000001D000,R30
                 ; 0000 0625         break;
                 _0x2B:
000f7d c029      	RJMP _0x27
                 ; 0000 0626     case 2:
                 _0x2A:
000f7e 30e2      	CPI  R30,LOW(0x2)
000f7f e0a0      	LDI  R26,HIGH(0x2)
000f80 07fa      	CPC  R31,R26
000f81 f479      	BRNE _0x2C
                 ; 0000 0627         if (--y_val.i == 0x0001)
000f82 91a0 3a03 	LDS  R26,_y_val_S000001D000
000f84 91b0 3a04 	LDS  R27,_y_val_S000001D000+1
000f86 9711      	SBIW R26,1
000f87 93a0 3a03 	STS  _y_val_S000001D000,R26
000f89 93b0 3a04 	STS  _y_val_S000001D000+1,R27
000f8b 9711      	SBIW R26,1
000f8c f419      	BRNE _0x2D
                 ; 0000 0628             state = 3;
000f8d e0e3      	LDI  R30,LOW(3)
000f8e 93e0 3a00 	STS  _state_S000001D000,R30
                 ; 0000 0629         break;
                 _0x2D:
000f90 c016      	RJMP _0x27
                 ; 0000 062A     case 3:
                 _0x2C:
000f91 30e3      	CPI  R30,LOW(0x3)
000f92 e0a0      	LDI  R26,HIGH(0x3)
000f93 07fa      	CPC  R31,R26
000f94 f491      	BRNE _0x27
                 ; 0000 062B         x_val.i -= 0x10;
000f95 91e0 3a01 	LDS  R30,_x_val_S000001D000
000f97 91f0 3a02 	LDS  R31,_x_val_S000001D000+1
000f99 9770      	SBIW R30,16
000f9a 93e0 3a01 	STS  _x_val_S000001D000,R30
000f9c 93f0 3a02 	STS  _x_val_S000001D000+1,R31
                 ; 0000 062C         if (x_val.i == 0x0010)
000f9e 91a0 3a01 	LDS  R26,_x_val_S000001D000
000fa0 91b0 3a02 	LDS  R27,_x_val_S000001D000+1
000fa2 9750      	SBIW R26,16
000fa3 f419      	BRNE _0x2F
                 ; 0000 062D             state = 0;
000fa4 e0e0      	LDI  R30,LOW(0)
000fa5 93e0 3a00 	STS  _state_S000001D000,R30
                 ; 0000 062E         break;
                 _0x2F:
                 ; 0000 062F     }
                 _0x27:
                 ; 0000 0630 }
000fa7 91e9      	LD   R30,Y+
000fa8 bfef      	OUT  SREG,R30
000fa9 91f9      	LD   R31,Y+
000faa 91e9      	LD   R30,Y+
000fab 91b9      	LD   R27,Y+
000fac 91a9      	LD   R26,Y+
000fad 9518      	RETI
                 ;
                 ;
                 ;//______________________________________________________________KEYPAD_FUNCTIONS_&_VARIABLES_&_INTERRUPTS_______________________
                 ;// Initialization
                 ;// Timer/Counter TCF0 initialization (Bounce and error detector timer for Keypad)
                 ;void tcf0_init(void)
                 ; 0000 0637 {
                 _tcf0_init:
                 ; 0000 0638 unsigned char s;
                 ; 0000 0639 
                 ; 0000 063A // Note: the correct PORTF direction for the Compare Channels outputs
                 ; 0000 063B // is configured in the ports_init function
                 ; 0000 063C 
                 ; 0000 063D // Save interrupts enabled/disabled state
                 ; 0000 063E s=SREG;
000fae 931a      	ST   -Y,R17
                 ;	s -> R17
000faf b71f      	IN   R17,63
                 ; 0000 063F // Disable interrupts
                 ; 0000 0640 #asm("cli")
000fb0 94f8      	cli
                 ; 0000 0641 
                 ; 0000 0642 // Disable and reset the timer/counter just to be sure
                 ; 0000 0643 tc0_disable(&TCF0);
000fb1 e0a0      	LDI  R26,LOW(2816)
000fb2 e0bb      	LDI  R27,HIGH(2816)
000fb3 dc02      	RCALL _tc0_disable
                 ; 0000 0644 // Clock source: Peripheral Clock/64
                 ; 0000 0645 TCF0.CTRLA=(TCF0.CTRLA & (~TC0_CLKSEL_gm)) | TC_CLKSEL_DIV64_gc;
000fb4 91e0 0b00 	LDS  R30,2816
000fb6 7fe0      	ANDI R30,LOW(0xF0)
000fb7 60e5      	ORI  R30,LOW(0x5)
000fb8 93e0 0b00 	STS  2816,R30
                 ; 0000 0646 // Mode: Normal Operation, Overflow Int./Event on TOP
                 ; 0000 0647 // Compare/Capture on channel A: Off
                 ; 0000 0648 // Compare/Capture on channel B: Off
                 ; 0000 0649 // Compare/Capture on channel C: Off
                 ; 0000 064A // Compare/Capture on channel D: Off
                 ; 0000 064B TCF0.CTRLB=(TCF0.CTRLB & (~(TC0_CCAEN_bm | TC0_CCBEN_bm | TC0_CCCEN_bm | TC0_CCDEN_bm | TC0_WGMODE_gm))) |
                 ; 0000 064C 	TC_WGMODE_NORMAL_gc;
000fba 91e0 0b01 	LDS  R30,2817
000fbc 70e8      	ANDI R30,LOW(0x8)
000fbd 93e0 0b01 	STS  2817,R30
                 ; 0000 064D 
                 ; 0000 064E // Capture event source: None
                 ; 0000 064F // Capture event action: None
                 ; 0000 0650 TCF0.CTRLD=(TCF0.CTRLD & (~(TC0_EVACT_gm | TC0_EVSEL_gm))) |
                 ; 0000 0651 	TC_EVACT_OFF_gc | TC_EVSEL_OFF_gc;
000fbf 91e0 0b03 	LDS  R30,2819
000fc1 71e0      	ANDI R30,LOW(0x10)
000fc2 93e0 0b03 	STS  2819,R30
                 ; 0000 0652 
                 ; 0000 0653 // Overflow interrupt: Low Level
                 ; 0000 0654 // Error interrupt: Disabled
                 ; 0000 0655 TCF0.INTCTRLA=(TCF0.INTCTRLA & (~(TC0_ERRINTLVL_gm | TC0_OVFINTLVL_gm))) |
                 ; 0000 0656 	TC_ERRINTLVL_OFF_gc | TC_OVFINTLVL_LO_gc;
000fc4 91e0 0b06 	LDS  R30,2822
000fc6 7fe0      	ANDI R30,LOW(0xF0)
000fc7 60e1      	ORI  R30,1
000fc8 93e0 0b06 	STS  2822,R30
                 ; 0000 0657 
                 ; 0000 0658 // Compare/Capture channel A interrupt: Disabled
                 ; 0000 0659 // Compare/Capture channel B interrupt: Disabled
                 ; 0000 065A // Compare/Capture channel C interrupt: Disabled
                 ; 0000 065B // Compare/Capture channel D interrupt: Disabled
                 ; 0000 065C TCF0.INTCTRLB=(TCF0.INTCTRLB & (~(TC0_CCDINTLVL_gm | TC0_CCCINTLVL_gm | TC0_CCBINTLVL_gm | TC0_CCAINTLVL_gm))) |
                 ; 0000 065D 	TC_CCDINTLVL_OFF_gc | TC_CCCINTLVL_OFF_gc | TC_CCBINTLVL_OFF_gc | TC_CCAINTLVL_OFF_gc;
000fca 91e0 0b07 	LDS  R30,2823
000fcc 70e0      	ANDI R30,LOW(0x0)
000fcd 93e0 0b07 	STS  2823,R30
                 ; 0000 065E 
                 ; 0000 065F // High resolution extension: Off
                 ; 0000 0660 HIRESF.CTRL&= ~HIRES_HREN0_bm;
000fcf 91e0 0b90 	LDS  R30,2960
000fd1 7fee      	ANDI R30,0xFE
000fd2 93e0 0b90 	STS  2960,R30
                 ; 0000 0661 
                 ; 0000 0662 // Clear the interrupt flags
                 ; 0000 0663 TCF0.INTFLAGS=TCF0.INTFLAGS;
000fd4 91e0 0b0c 	LDS  R30,2828
000fd6 93e0 0b0c 	STS  2828,R30
                 ; 0000 0664 // Set counter register
                 ; 0000 0665 TCF0.CNT=0x0000;
000fd8 e0e0      	LDI  R30,LOW(0)
000fd9 e0f0      	LDI  R31,HIGH(0)
000fda 93e0 0b20 	STS  2848,R30
000fdc 93f0 0b21 	STS  2848+1,R31
                 ; 0000 0666 // Set period register
                 ; 0000 0667 TCF0.PER=0x61A7;
000fde eae7      	LDI  R30,LOW(24999)
000fdf e6f1      	LDI  R31,HIGH(24999)
000fe0 93e0 0b26 	STS  2854,R30
000fe2 93f0 0b27 	STS  2854+1,R31
                 ; 0000 0668 // Set channel A Compare/Capture register
                 ; 0000 0669 TCF0.CCA=0x0000;
000fe4 e0e0      	LDI  R30,LOW(0)
000fe5 e0f0      	LDI  R31,HIGH(0)
000fe6 93e0 0b28 	STS  2856,R30
000fe8 93f0 0b29 	STS  2856+1,R31
                 ; 0000 066A // Set channel B Compare/Capture register
                 ; 0000 066B TCF0.CCB=0x0000;
000fea 93e0 0b2a 	STS  2858,R30
000fec 93f0 0b2b 	STS  2858+1,R31
                 ; 0000 066C // Set channel C Compare/Capture register
                 ; 0000 066D TCF0.CCC=0x0000;
000fee 93e0 0b2c 	STS  2860,R30
000ff0 93f0 0b2d 	STS  2860+1,R31
                 ; 0000 066E // Set channel D Compare/Capture register
                 ; 0000 066F TCF0.CCD=0x0000;
000ff2 93e0 0b2e 	STS  2862,R30
000ff4 93f0 0b2f 	STS  2862+1,R31
                 ; 0000 0670 
                 ; 0000 0671 // Restore interrupts enabled/disabled state
                 ; 0000 0672 SREG=s;
                 _0x20C0012:
000ff6 bf1f      	OUT  0x3F,R17
                 ; 0000 0673 }
000ff7 9119      	LD   R17,Y+
000ff8 9508      	RET
                 ;
                 ;// Global Variables for Keypad
                 ;#define KEY_COUNT		16
                 ;unsigned char key_col_pos_temp;
                 ;unsigned char key_col_pos, key_row_pos;
                 ;unsigned char key_pos;
                 ;unsigned char key;
                 ;
                 ;#define KEY_BACKSPACE	10
                 ;#define KEY_CALIBRATE	11
                 ;#define KEY_UNITS		12
                 ;#define KEY_SET			13
                 ;#define KEY_ENTER		14
                 ;#define KEY_MINUS		15
                 ;#define KEY_RIGHT		9
                 ;#define KEY_LEFT		7
                 ;flash unsigned char key_pos_to_key[KEY_COUNT] = {1,2,3,KEY_BACKSPACE,4,5,6,KEY_CALIBRATE,7,8,9,
                 ;                                                    KEY_UNITS,KEY_SET,0,KEY_ENTER,KEY_MINUS};
                 ;
                 ;enum _menu_states_
                 ;{
                 ;	menu_state_calib = 0,
                 ;	menu_state_show_freq,
                 ;	menu_state_show_div,
                 ;	menu_state_show_min,
                 ;	menu_state_show_gain,
                 ;	menu_state_set_freq,
                 ;	menu_state_set_div,
                 ;	menu_state_set_min,
                 ;	menu_state_set_gain,
                 ;	menu_state_invalid_state,
                 ;}
                 ;next_menu_state, current_menu_state = menu_state_calib;
                 ;
                 ;void menu_display_calib (void)
                 ; 0000 0697 {
                 _menu_display_calib:
                 ; 0000 0698 	lcd_clear();
000ff9 940e 1b42 	CALL _lcd_clear
                 ; 0000 0699 	lcd_putsf("calibrate");
                +
000ffb e0a0     +LDI R26 , LOW ( 2 * _0x0 + ( 0 ) )
000ffc e1b3     +LDI R27 , HIGH ( 2 * _0x0 + ( 0 ) )
                 	__POINTW2FN _0x0,0
000ffd 940e 1b89 	CALL _lcd_putsf
                 ; 0000 069A     dac_disable();
000fff dec0      	RCALL _dac_disable
                 ; 0000 069B 	//  disable other preipherals
                 ; 0000 069C 	sampling_commence_disable();
001000 dc14      	RCALL _sampling_commence_disable
                 ; 0000 069D     sampling_disable();
001001 dc8c      	RCALL _sampling_disable
                 ; 0000 069E     dma_disable();
001002 dd99      	RCALL _dma_disable
                 ; 0000 069F 	//  enable callibration
                 ; 0000 06A0 	calibration_enable();
001003 df0e      	RCALL _calibration_enable
                 ; 0000 06A1 }
001004 9508      	RET
                 ;
                 ;static unsigned char number_input_number_cntr;
                 ;signed long int number_input (unsigned char minus_enable, unsigned char max_digits, unsigned char lcd_x_offset, unsigned char lcd_y)
                 ; 0000 06A5 {
                 _number_input:
                 ; 0000 06A6 	static signed int number;
                 ; 0000 06A7 	if ((current_menu_state < menu_state_set_freq) || (current_menu_state > menu_state_set_min))
001005 93aa      	ST   -Y,R26
                 ;	minus_enable -> Y+3
                 ;	max_digits -> Y+2
                 ;	lcd_x_offset -> Y+1
                 ;	lcd_y -> Y+0
001006 91a0 3a09 	LDS  R26,_current_menu_state
001008 30a5      	CPI  R26,LOW(0x5)
001009 f010      	BRLO _0x31
00100a 30a8      	CPI  R26,LOW(0x8)
00100b f040      	BRLO _0x30
                 _0x31:
                 ; 0000 06A8 	{
                 ; 0000 06A9 		number = 0;
00100c e0e0      	LDI  R30,LOW(0)
00100d 93e0 3a0b 	STS  _number_S0000020000,R30
00100f 93e0 3a0c 	STS  _number_S0000020000+1,R30
                 ; 0000 06AA 		number_input_number_cntr = 0;
001011 93e0 3a0a 	STS  _number_input_number_cntr_G000,R30
                 ; 0000 06AB 	}
                 ; 0000 06AC 	else
001013 c07a      	RJMP _0x33
                 _0x30:
                 ; 0000 06AD 	{
                 ; 0000 06AE 		if ((key < 10) && (number_input_number_cntr < max_digits))
001014 91a0 3a07 	LDS  R26,_key
001016 30aa      	CPI  R26,LOW(0xA)
001017 f428      	BRSH _0x35
001018 81ea      	LDD  R30,Y+2
001019 91a0 3a0a 	LDS  R26,_number_input_number_cntr_G000
00101b 17ae      	CP   R26,R30
00101c f008      	BRLO _0x36
                 _0x35:
00101d c01d      	RJMP _0x34
                 _0x36:
                 ; 0000 06AF 		{
                 ; 0000 06B0 			number = 10*number + key;
00101e 91e0 3a0b 	LDS  R30,_number_S0000020000
001020 91f0 3a0c 	LDS  R31,_number_S0000020000+1
001022 e0aa      	LDI  R26,LOW(10)
001023 e0b0      	LDI  R27,HIGH(10)
001024 940e 20f3 	CALL __MULW12
001026 01df      	MOVW R26,R30
001027 91e0 3a07 	LDS  R30,_key
001029 e0f0      	LDI  R31,0
00102a 0fea      	ADD  R30,R26
00102b 1ffb      	ADC  R31,R27
00102c 93e0 3a0b 	STS  _number_S0000020000,R30
00102e 93f0 3a0c 	STS  _number_S0000020000+1,R31
                 ; 0000 06B1 			lcd_putchar(key + '0');
001030 91a0 3a07 	LDS  R26,_key
001032 5da0      	SUBI R26,-LOW(48)
001033 940e 1b56 	CALL _lcd_putchar
                 ; 0000 06B2 			number_input_number_cntr++;
001035 91e0 3a0a 	LDS  R30,_number_input_number_cntr_G000
001037 5fef      	SUBI R30,-LOW(1)
001038 93e0 3a0a 	STS  _number_input_number_cntr_G000,R30
                 ; 0000 06B3 		}
                 ; 0000 06B4 		else if ((key == KEY_BACKSPACE) && (number_input_number_cntr > 0))
00103a c053      	RJMP _0x37
                 _0x34:
00103b 91a0 3a07 	LDS  R26,_key
00103d 30aa      	CPI  R26,LOW(0xA)
00103e f421      	BRNE _0x39
00103f 91a0 3a0a 	LDS  R26,_number_input_number_cntr_G000
001041 30a1      	CPI  R26,LOW(0x1)
001042 f408      	BRSH _0x3A
                 _0x39:
001043 c021      	RJMP _0x38
                 _0x3A:
                 ; 0000 06B5 		{
                 ; 0000 06B6 			number /= 10;
001044 91a0 3a0b 	LDS  R26,_number_S0000020000
001046 91b0 3a0c 	LDS  R27,_number_S0000020000+1
001048 e0ea      	LDI  R30,LOW(10)
001049 e0f0      	LDI  R31,HIGH(10)
00104a 940e 210b 	CALL __DIVW21
00104c 93e0 3a0b 	STS  _number_S0000020000,R30
00104e 93f0 3a0c 	STS  _number_S0000020000+1,R31
                 ; 0000 06B7 			number_input_number_cntr--;
001050 91e0 3a0a 	LDS  R30,_number_input_number_cntr_G000
001052 50e1      	SUBI R30,LOW(1)
001053 93e0 3a0a 	STS  _number_input_number_cntr_G000,R30
                 ; 0000 06B8 			lcd_gotoxy(lcd_x_offset + number_input_number_cntr,lcd_y);
001055 81a9      	LDD  R26,Y+1
001056 0fea      	ADD  R30,R26
001057 93ea      	ST   -Y,R30
001058 81a9      	LDD  R26,Y+1
001059 940e 1b31 	CALL _lcd_gotoxy
                 ; 0000 06B9 			if (number_input_number_cntr)
00105b 91e0 3a0a 	LDS  R30,_number_input_number_cntr_G000
00105d 30e0      	CPI  R30,0
00105e f011      	BREQ _0x3B
                 ; 0000 06BA 				lcd_putchar(' ');
00105f e2a0      	LDI  R26,LOW(32)
001060 c001      	RJMP _0xBA
                 ; 0000 06BB 			else
                 _0x3B:
                 ; 0000 06BC 				lcd_putchar('?');
001061 e3af      	LDI  R26,LOW(63)
                 _0xBA:
001062 940e 1b56 	CALL _lcd_putchar
                 ; 0000 06BD 			lcd_gotoxy(lcd_x_offset + number_input_number_cntr,lcd_y);
001064 c021      	RJMP _0xBB
                 ; 0000 06BE 
                 ; 0000 06BF 		}
                 ; 0000 06C0 		else if ((key == KEY_MINUS) && (minus_enable))
                 _0x38:
001065 91a0 3a07 	LDS  R26,_key
001067 30af      	CPI  R26,LOW(0xF)
001068 f419      	BRNE _0x3F
001069 81eb      	LDD  R30,Y+3
00106a 30e0      	CPI  R30,0
00106b f409      	BRNE _0x40
                 _0x3F:
00106c c021      	RJMP _0x3E
                 _0x40:
                 ; 0000 06C1 		{
                 ; 0000 06C2 			number = -number;
00106d 91e0 3a0b 	LDS  R30,_number_S0000020000
00106f 91f0 3a0c 	LDS  R31,_number_S0000020000+1
001071 940e 209c 	CALL __ANEGW1
001073 93e0 3a0b 	STS  _number_S0000020000,R30
001075 93f0 3a0c 	STS  _number_S0000020000+1,R31
                 ; 0000 06C3 			lcd_gotoxy(lcd_x_offset - 1,lcd_y);
001077 81e9      	LDD  R30,Y+1
001078 50e1      	SUBI R30,LOW(1)
001079 93ea      	ST   -Y,R30
00107a 81a9      	LDD  R26,Y+1
00107b 940e 1b31 	CALL _lcd_gotoxy
                 ; 0000 06C4 			if (number < 0)
00107d 91a0 3a0c 	LDS  R26,_number_S0000020000+1
00107f 23aa      	TST  R26
001080 f412      	BRPL _0x41
                 ; 0000 06C5 				lcd_putchar('-');
001081 e2ad      	LDI  R26,LOW(45)
001082 c001      	RJMP _0xBC
                 ; 0000 06C6 			else
                 _0x41:
                 ; 0000 06C7 				lcd_putchar(' ');
001083 e2a0      	LDI  R26,LOW(32)
                 _0xBC:
001084 940e 1b56 	CALL _lcd_putchar
                 ; 0000 06C8 			lcd_gotoxy(lcd_x_offset + number_input_number_cntr,lcd_y);
                 _0xBB:
001086 91e0 3a0a 	LDS  R30,_number_input_number_cntr_G000
001088 81a9      	LDD  R26,Y+1
001089 0fea      	ADD  R30,R26
00108a 93ea      	ST   -Y,R30
00108b 81a9      	LDD  R26,Y+1
00108c 940e 1b31 	CALL _lcd_gotoxy
                 ; 0000 06C9 		}
                 ; 0000 06CA 	}
                 _0x3E:
                 _0x37:
                 _0x33:
                 ; 0000 06CB 
                 ; 0000 06CC 	return number;
00108e 91e0 3a0b 	LDS  R30,_number_S0000020000
001090 91f0 3a0c 	LDS  R31,_number_S0000020000+1
001092 940e 20c6 	CALL __CWD1
001094 c124      	RJMP _0x20C0011
                 ; 0000 06CD }
                 ;
                 ;void menu_display_show_freq (void)
                 ; 0000 06D0 {
                 _menu_display_show_freq:
                 ; 0000 06D1 	char str[5];
                 ; 0000 06D2 	unsigned int freq;
                 ; 0000 06D3 	if (number_input_number_cntr && (key == KEY_ENTER))
001095 9725      	SBIW R28,5
001096 931a      	ST   -Y,R17
001097 930a      	ST   -Y,R16
                 ;	str -> Y+2
                 ;	freq -> R16,R17
001098 91e0 3a0a 	LDS  R30,_number_input_number_cntr_G000
00109a 30e0      	CPI  R30,0
00109b f021      	BREQ _0x44
00109c 91a0 3a07 	LDS  R26,_key
00109e 30ae      	CPI  R26,LOW(0xE)
00109f f009      	BREQ _0x45
                 _0x44:
0010a0 c023      	RJMP _0x43
                 _0x45:
                 ; 0000 06D4 	{
                 ; 0000 06D5 		freq = number_input(0,0,0,0);
0010a1 e0e0      	LDI  R30,LOW(0)
0010a2 93ea      	ST   -Y,R30
0010a3 93ea      	ST   -Y,R30
0010a4 93ea      	ST   -Y,R30
0010a5 e0a0      	LDI  R26,LOW(0)
0010a6 df5e      	RCALL _number_input
0010a7 018f      	MOVW R16,R30
                 ; 0000 06D6         if (freq > 2000)
                +
0010a8 3d01     +CPI R16 , LOW ( 2001 )
0010a9 e0e7     +LDI R30 , HIGH ( 2001 )
0010aa 071e     +CPC R17 , R30
                 	__CPWRN 16,17,2001
0010ab f010      	BRLO _0x46
                 ; 0000 06D7 			freq = 2000;
                +
0010ac ed00     +LDI R16 , LOW ( 2000 )
0010ad e017     +LDI R17 , HIGH ( 2000 )
                 	__GETWRN 16,17,2000
                 ; 0000 06D8         if (freq == 0)
                 _0x46:
0010ae 2e00      	MOV  R0,R16
0010af 2a01      	OR   R0,R17
0010b0 f411      	BRNE _0x47
                 ; 0000 06D9             freq = 1;
                +
0010b1 e001     +LDI R16 , LOW ( 1 )
0010b2 e010     +LDI R17 , HIGH ( 1 )
                 	__GETWRN 16,17,1
                 ; 0000 06DA 		// Disable Sampling Timer and what so ever
                 ; 0000 06DB 		sampling_commence_disable();
                 _0x47:
0010b3 db61      	RCALL _sampling_commence_disable
                 ; 0000 06DC         sampling_disable();
0010b4 dbd9      	RCALL _sampling_disable
                 ; 0000 06DD         dma_disable();
0010b5 dce6      	RCALL _dma_disable
                 ; 0000 06DE 		// Update sampling timer PER register
                 ; 0000 06DF 		SAMPLING_TIMER_PER = _MCU_CLOCK_FREQUENCY_/1000/freq - 1;
0010b6 01f8      	MOVW R30,R16
0010b7 e0a0      	LDI  R26,LOW(32000)
0010b8 e7bd      	LDI  R27,HIGH(32000)
0010b9 940e 20f8 	CALL __DIVW21U
0010bb 9731      	SBIW R30,1
0010bc 93e0 0826 	STS  2086,R30
0010be 93f0 0827 	STS  2086+1,R31
                 ; 0000 06E0 		// Enable Sampling Timer and what so ever
                 ; 0000 06E1 		dma_init();
0010c0 dcdf      	RCALL _dma_init
                 ; 0000 06E2         sampling_enable();
0010c1 dbd8      	RCALL _sampling_enable
                 ; 0000 06E3         sampling_commence_enable();
0010c2 db5f      	RCALL _sampling_commence_enable
                 ; 0000 06E4 	}
                 ; 0000 06E5     else if (current_menu_state == menu_state_calib)
0010c3 c009      	RJMP _0x48
                 _0x43:
0010c4 91e0 3a09 	LDS  R30,_current_menu_state
0010c6 30e0      	CPI  R30,0
0010c7 f429      	BRNE _0x49
                 ; 0000 06E6     {
                 ; 0000 06E7         calibration_disable();
0010c8 de47      	RCALL _calibration_disable
                 ; 0000 06E8 		dma_init();
0010c9 dcd6      	RCALL _dma_init
                 ; 0000 06E9         sampling_enable();
0010ca dbcf      	RCALL _sampling_enable
                 ; 0000 06EA         sampling_commence_enable();
0010cb db56      	RCALL _sampling_commence_enable
                 ; 0000 06EB         dac_enable();
0010cc de01      	RCALL _dac_enable
                 ; 0000 06EC     }
                 ; 0000 06ED 	itoa(_MCU_CLOCK_FREQUENCY_/1000/(((unsigned long)(SAMPLING_TIMER_PER)) + 1),str);
                 _0x49:
                 _0x48:
0010cd 91e0 0826 	LDS  R30,2086
0010cf 91f0 0827 	LDS  R31,2086+1
0010d1 2766      	CLR  R22
0010d2 2777      	CLR  R23
                +
0010d3 5fef     +SUBI R30 , LOW ( - 1 )
0010d4 4fff     +SBCI R31 , HIGH ( - 1 )
0010d5 4f6f     +SBCI R22 , BYTE3 ( - 1 )
0010d6 4f7f     +SBCI R23 , BYTE4 ( - 1 )
                 	__ADDD1N 1
                +
0010d7 e0a0     +LDI R26 , LOW ( 0x7D00 )
0010d8 e7bd     +LDI R27 , HIGH ( 0x7D00 )
0010d9 e080     +LDI R24 , BYTE3 ( 0x7D00 )
0010da e090     +LDI R25 , BYTE4 ( 0x7D00 )
                 	__GETD2N 0x7D00
0010db 940e 2110 	CALL __DIVD21U
0010dd 93fa      	ST   -Y,R31
0010de 93ea      	ST   -Y,R30
0010df 01de      	MOVW R26,R28
0010e0 9614      	ADIW R26,4
0010e1 940e 1e24 	CALL _itoa
                 ; 0000 06EE 	lcd_clear();
0010e3 940e 1b42 	CALL _lcd_clear
                 ; 0000 06EF 	lcd_putsf("Sampling Freq =");
                +
0010e5 e0aa     +LDI R26 , LOW ( 2 * _0x0 + ( 10 ) )
0010e6 e1b3     +LDI R27 , HIGH ( 2 * _0x0 + ( 10 ) )
                 	__POINTW2FN _0x0,10
0010e7 940e 1b89 	CALL _lcd_putsf
                 ; 0000 06F0 	lcd_gotoxy(0,1);
0010e9 e0e0      	LDI  R30,LOW(0)
0010ea 93ea      	ST   -Y,R30
0010eb e0a1      	LDI  R26,LOW(1)
0010ec 940e 1b31 	CALL _lcd_gotoxy
                 ; 0000 06F1 	lcd_puts(str);
0010ee 01de      	MOVW R26,R28
0010ef 9612      	ADIW R26,2
0010f0 940e 1b7a 	CALL _lcd_puts
                 ; 0000 06F2 	lcd_gotoxy(5,1);
0010f2 e0e5      	LDI  R30,LOW(5)
0010f3 93ea      	ST   -Y,R30
0010f4 e0a1      	LDI  R26,LOW(1)
0010f5 940e 1b31 	CALL _lcd_gotoxy
                 ; 0000 06F3 	lcd_putsf("KHz");
                +
0010f7 e1aa     +LDI R26 , LOW ( 2 * _0x0 + ( 26 ) )
0010f8 e1b3     +LDI R27 , HIGH ( 2 * _0x0 + ( 26 ) )
                 	__POINTW2FN _0x0,26
0010f9 940e 1b89 	CALL _lcd_putsf
                 ; 0000 06F4 }
0010fb 8119      	LDD  R17,Y+1
0010fc 8108      	LDD  R16,Y+0
0010fd 9627      	ADIW R28,7
0010fe 9508      	RET
                 ;void menu_display_set_freq (void)
                 ; 0000 06F6 {
                 _menu_display_set_freq:
                 ; 0000 06F7 	if (current_menu_state != menu_state_set_freq)
0010ff 91a0 3a09 	LDS  R26,_current_menu_state
001101 30a5      	CPI  R26,LOW(0x5)
001102 f0a1      	BREQ _0x4A
                 ; 0000 06F8 	{
                 ; 0000 06F9 		lcd_clear();
001103 940e 1b42 	CALL _lcd_clear
                 ; 0000 06FA 		lcd_putsf("Set Samp Freq:");
                +
001105 e1ae     +LDI R26 , LOW ( 2 * _0x0 + ( 30 ) )
001106 e1b3     +LDI R27 , HIGH ( 2 * _0x0 + ( 30 ) )
                 	__POINTW2FN _0x0,30
001107 940e 1b89 	CALL _lcd_putsf
                 ; 0000 06FB 		lcd_gotoxy(5,1);
001109 e0e5      	LDI  R30,LOW(5)
00110a 93ea      	ST   -Y,R30
00110b e0a1      	LDI  R26,LOW(1)
00110c 940e 1b31 	CALL _lcd_gotoxy
                 ; 0000 06FC 		lcd_putsf("KHz");
                +
00110e e1aa     +LDI R26 , LOW ( 2 * _0x0 + ( 26 ) )
00110f e1b3     +LDI R27 , HIGH ( 2 * _0x0 + ( 26 ) )
                 	__POINTW2FN _0x0,26
001110 940e 1b89 	CALL _lcd_putsf
                 ; 0000 06FD 		lcd_gotoxy(0,1);
001112 e0e0      	LDI  R30,LOW(0)
001113 93ea      	ST   -Y,R30
001114 e0a1      	LDI  R26,LOW(1)
001115 940e 1b31 	CALL _lcd_gotoxy
                 ; 0000 06FE 	}
                 ; 0000 06FF 	number_input(0,4,0,1);
                 _0x4A:
001117 e0e0      	LDI  R30,LOW(0)
001118 93ea      	ST   -Y,R30
001119 e0e4      	LDI  R30,LOW(4)
00111a 93ea      	ST   -Y,R30
00111b e0e0      	LDI  R30,LOW(0)
00111c c2a5      	RJMP _0x20C000F
                 ; 0000 0700 }
                 ;
                 ;float abs_to_dac_coeff0 = 255.0;
                 
                 	.DSEG
                 ;float abs_to_dac_coeff1 = -0.0001275;
                 ;signed long int oscope_min = 0.0;
                 ;unsigned long int oscope_div = 250000.0;
                 ;void min_div_to_coeff (void)
                 ; 0000 0707 {
                 
                 	.CSEG
                 _min_div_to_coeff:
                 ; 0000 0708     abs_to_dac_coeff1 = -255.0/8.0/((float)(oscope_div));
00111d 91e0 3a19 	LDS  R30,_oscope_div
00111f 91f0 3a1a 	LDS  R31,_oscope_div+1
001121 9160 3a1b 	LDS  R22,_oscope_div+2
001123 9170 3a1c 	LDS  R23,_oscope_div+3
001125 940e 1f53 	CALL __CDF1U
                +
001127 e0a0     +LDI R26 , LOW ( 0xC1FF0000 )
001128 e0b0     +LDI R27 , HIGH ( 0xC1FF0000 )
001129 ef8f     +LDI R24 , BYTE3 ( 0xC1FF0000 )
00112a ec91     +LDI R25 , BYTE4 ( 0xC1FF0000 )
                 	__GETD2N 0xC1FF0000
00112b 940e 202d 	CALL __DIVF21
00112d 93e0 3a11 	STS  _abs_to_dac_coeff1,R30
00112f 93f0 3a12 	STS  _abs_to_dac_coeff1+1,R31
001131 9360 3a13 	STS  _abs_to_dac_coeff1+2,R22
001133 9370 3a14 	STS  _abs_to_dac_coeff1+3,R23
                 ; 0000 0709     abs_to_dac_coeff0 = 255.0 + ((float)(oscope_min))*255.0/8.0/((float)(oscope_div));
001135 91e0 3a15 	LDS  R30,_oscope_min
001137 91f0 3a16 	LDS  R31,_oscope_min+1
001139 9160 3a17 	LDS  R22,_oscope_min+2
00113b 9170 3a18 	LDS  R23,_oscope_min+3
00113d 940e 1f55 	CALL __CDF1
                +
00113f e0a0     +LDI R26 , LOW ( 0x437F0000 )
001140 e0b0     +LDI R27 , HIGH ( 0x437F0000 )
001141 e78f     +LDI R24 , BYTE3 ( 0x437F0000 )
001142 e493     +LDI R25 , BYTE4 ( 0x437F0000 )
                 	__GETD2N 0x437F0000
001143 940e 1fdf 	CALL __MULF12
001145 01df      	MOVW R26,R30
001146 01cb      	MOVW R24,R22
                +
001147 e0e0     +LDI R30 , LOW ( 0x41000000 )
001148 e0f0     +LDI R31 , HIGH ( 0x41000000 )
001149 e060     +LDI R22 , BYTE3 ( 0x41000000 )
00114a e471     +LDI R23 , BYTE4 ( 0x41000000 )
                 	__GETD1N 0x41000000
00114b 940e 202d 	CALL __DIVF21
00114d 01df      	MOVW R26,R30
00114e 01cb      	MOVW R24,R22
00114f 91e0 3a19 	LDS  R30,_oscope_div
001151 91f0 3a1a 	LDS  R31,_oscope_div+1
001153 9160 3a1b 	LDS  R22,_oscope_div+2
001155 9170 3a1c 	LDS  R23,_oscope_div+3
001157 940e 1f53 	CALL __CDF1U
001159 940e 202d 	CALL __DIVF21
                +
00115b e0a0     +LDI R26 , LOW ( 0x437F0000 )
00115c e0b0     +LDI R27 , HIGH ( 0x437F0000 )
00115d e78f     +LDI R24 , BYTE3 ( 0x437F0000 )
00115e e493     +LDI R25 , BYTE4 ( 0x437F0000 )
                 	__GETD2N 0x437F0000
00115f 940e 1f8f 	CALL __ADDF12
001161 93e0 3a0d 	STS  _abs_to_dac_coeff0,R30
001163 93f0 3a0e 	STS  _abs_to_dac_coeff0+1,R31
001165 9360 3a0f 	STS  _abs_to_dac_coeff0+2,R22
001167 9370 3a10 	STS  _abs_to_dac_coeff0+3,R23
                 ; 0000 070A }
001169 9508      	RET
                 ;#define UNIT_COUNT      4
                 ;#define DIV_UNIT_UV		0
                 ;#define DIV_UNIT_MV		1
                 ;#define DIV_UNIT_DB		2
                 ;#define DIV_UNIT_DBM    3
                 ;#define LOG10IMPEDANCE	1.69897
                 ;float abs_fft_uV (float input)
                 ; 0000 0712 {
                 _abs_fft_uV:
                 ; 0000 0713     return pow(input,0.5)*1000000.0;
00116a 940e 219f 	CALL __PUTPARD2
                 ;	input -> Y+0
00116c 940e 2186 	CALL __GETD1S0
00116e 940e 219a 	CALL __PUTPARD1
                +
001170 e0a0     +LDI R26 , LOW ( 0x3F000000 )
001171 e0b0     +LDI R27 , HIGH ( 0x3F000000 )
001172 e080     +LDI R24 , BYTE3 ( 0x3F000000 )
001173 e39f     +LDI R25 , BYTE4 ( 0x3F000000 )
                 	__GETD2N 0x3F000000
001174 940e 1dad 	CALL _pow
                +
001176 e0a0     +LDI R26 , LOW ( 0x49742400 )
001177 e2b4     +LDI R27 , HIGH ( 0x49742400 )
001178 e784     +LDI R24 , BYTE3 ( 0x49742400 )
001179 e499     +LDI R25 , BYTE4 ( 0x49742400 )
                 	__GETD2N 0x49742400
00117a 940e 1fdf 	CALL __MULF12
00117c c03c      	RJMP _0x20C0011
                 ; 0000 0714 }
                 ;float abs_fft_mV (float input)
                 ; 0000 0716 {
                 _abs_fft_mV:
                 ; 0000 0717     return pow(input,0.5)*1000.0;
00117d 940e 219f 	CALL __PUTPARD2
                 ;	input -> Y+0
00117f 940e 2186 	CALL __GETD1S0
001181 940e 219a 	CALL __PUTPARD1
                +
001183 e0a0     +LDI R26 , LOW ( 0x3F000000 )
001184 e0b0     +LDI R27 , HIGH ( 0x3F000000 )
001185 e080     +LDI R24 , BYTE3 ( 0x3F000000 )
001186 e39f     +LDI R25 , BYTE4 ( 0x3F000000 )
                 	__GETD2N 0x3F000000
001187 940e 1dad 	CALL _pow
                +
001189 e0a0     +LDI R26 , LOW ( 0x447A0000 )
00118a e0b0     +LDI R27 , HIGH ( 0x447A0000 )
00118b e78a     +LDI R24 , BYTE3 ( 0x447A0000 )
00118c e494     +LDI R25 , BYTE4 ( 0x447A0000 )
                 	__GETD2N 0x447A0000
00118d 940e 1fdf 	CALL __MULF12
00118f c029      	RJMP _0x20C0011
                 ; 0000 0718 }
                 ;float abs_fft_dB (float input)
                 ; 0000 071A {
                 _abs_fft_dB:
                 ; 0000 071B     return 10.0*log10(input) - 10*LOG10IMPEDANCE;
001190 940e 219f 	CALL __PUTPARD2
                 ;	input -> Y+0
001192 940e 218b 	CALL __GETD2S0
001194 940e 1cd6 	CALL _log10
                +
001196 e0a0     +LDI R26 , LOW ( 0x41200000 )
001197 e0b0     +LDI R27 , HIGH ( 0x41200000 )
001198 e280     +LDI R24 , BYTE3 ( 0x41200000 )
001199 e491     +LDI R25 , BYTE4 ( 0x41200000 )
                 	__GETD2N 0x41200000
00119a 940e 1fdf 	CALL __MULF12
00119c 01df      	MOVW R26,R30
00119d 01cb      	MOVW R24,R22
                +
00119e eee8     +LDI R30 , LOW ( 0x4187EAE8 )
00119f eefa     +LDI R31 , HIGH ( 0x4187EAE8 )
0011a0 e867     +LDI R22 , BYTE3 ( 0x4187EAE8 )
0011a1 e471     +LDI R23 , BYTE4 ( 0x4187EAE8 )
                 	__GETD1N 0x4187EAE8
0011a2 940e 21ac 	CALL __SWAPD12
0011a4 940e 1f88 	CALL __SUBF12
0011a6 c012      	RJMP _0x20C0011
                 ; 0000 071C }
                 ;float abs_fft_dBm (float input)
                 ; 0000 071E {
                 _abs_fft_dBm:
                 ; 0000 071F     return 10.0*log10(input) + (30.0 - 10*LOG10IMPEDANCE);
0011a7 940e 219f 	CALL __PUTPARD2
                 ;	input -> Y+0
0011a9 940e 218b 	CALL __GETD2S0
0011ab 940e 1cd6 	CALL _log10
                +
0011ad e0a0     +LDI R26 , LOW ( 0x41200000 )
0011ae e0b0     +LDI R27 , HIGH ( 0x41200000 )
0011af e280     +LDI R24 , BYTE3 ( 0x41200000 )
0011b0 e491     +LDI R25 , BYTE4 ( 0x41200000 )
                 	__GETD2N 0x41200000
0011b1 940e 1fdf 	CALL __MULF12
                +
0011b3 e3a0     +LDI R26 , LOW ( 0x41502A30 )
0011b4 e2ba     +LDI R27 , HIGH ( 0x41502A30 )
0011b5 e580     +LDI R24 , BYTE3 ( 0x41502A30 )
0011b6 e491     +LDI R25 , BYTE4 ( 0x41502A30 )
                 	__GETD2N 0x41502A30
0011b7 940e 1f8f 	CALL __ADDF12
                 _0x20C0011:
0011b9 9624      	ADIW R28,4
0011ba 9508      	RET
                 ; 0000 0720 }
                 ;flash struct _units_
                 ;{
                 ;	signed long int min;
                 ;	signed long int max;
                 ;	char unit_msg[4];
                 ;    unsigned char number_input_max_digits;
                 ;	float (* abs_fft_fcn)(float input);
                 ;} units[UNIT_COUNT] =
                 ;{
                 ;	{0,2000000,"uV ",7,
                 ;	(float (*)(float)) abs_fft_uV},
                 ;	{0,2000,"mV ",4,
                 ;	(float (*)(float)) abs_fft_mV},
                 ;	{-105 - ((signed long int)(10.0*LOG10IMPEDANCE)),10 - ((signed long int)(10.0*LOG10IMPEDANCE))
                 ;    ,"dB ",4,(float (*)(float)) abs_fft_dB},
                 ;	{-75 - ((signed long int)(10.0*LOG10IMPEDANCE)),40 - ((signed long int)(10.0*LOG10IMPEDANCE))
                 ;    ,"dBm",4,(float (*)(float)) abs_fft_dBm}
                 ;};
                 ;unsigned char next_unit, current_unit = 0;
                 ;void menu_display_show_div (void)
                 ; 0000 0735 {
                 _menu_display_show_div:
                 ; 0000 0736 	char str[9];
                 ; 0000 0737     if (number_input_number_cntr && (key == KEY_ENTER))
0011bb 9729      	SBIW R28,9
                 ;	str -> Y+0
0011bc 91e0 3a0a 	LDS  R30,_number_input_number_cntr_G000
0011be 30e0      	CPI  R30,0
0011bf f021      	BREQ _0x4F
0011c0 91a0 3a07 	LDS  R26,_key
0011c2 30ae      	CPI  R26,LOW(0xE)
0011c3 f009      	BREQ _0x50
                 _0x4F:
0011c4 c070      	RJMP _0x4E
                 _0x50:
                 ; 0000 0738     {
                 ; 0000 0739         oscope_div = number_input(0,0,0,0);
0011c5 e0e0      	LDI  R30,LOW(0)
0011c6 93ea      	ST   -Y,R30
0011c7 93ea      	ST   -Y,R30
0011c8 93ea      	ST   -Y,R30
0011c9 e0a0      	LDI  R26,LOW(0)
0011ca de3a      	RCALL _number_input
0011cb 93e0 3a19 	STS  _oscope_div,R30
0011cd 93f0 3a1a 	STS  _oscope_div+1,R31
0011cf 9360 3a1b 	STS  _oscope_div+2,R22
0011d1 9370 3a1c 	STS  _oscope_div+3,R23
                 ; 0000 073A         if (8*oscope_div > (units[next_unit].max -  units[next_unit].min))
                +
0011d3 e0a8     +LDI R26 , LOW ( 0x8 )
0011d4 e0b0     +LDI R27 , HIGH ( 0x8 )
0011d5 e080     +LDI R24 , BYTE3 ( 0x8 )
0011d6 e090     +LDI R25 , BYTE4 ( 0x8 )
                 	__GETD2N 0x8
0011d7 940e 20d3 	CALL __MULD12U
0011d9 937f      	PUSH R23
0011da 936f      	PUSH R22
0011db 93ff      	PUSH R31
0011dc 93ef      	PUSH R30
0011dd 91e0 3a1d 	LDS  R30,_next_unit
0011df e0af      	LDI  R26,LOW(15)
0011e0 9fea      	MUL  R30,R26
0011e1 01f0      	MOVW R30,R0
0011e2 5fec      	SUBI R30,LOW(-_units*2)
0011e3 4ffd      	SBCI R31,HIGH(-_units*2)
0011e4 9634      	ADIW R30,4
0011e5 940e 2180 	CALL __GETD1PF
0011e7 937f      	PUSH R23
0011e8 936f      	PUSH R22
0011e9 93ff      	PUSH R31
0011ea 93ef      	PUSH R30
0011eb 91e0 3a1d 	LDS  R30,_next_unit
0011ed 9fea      	MUL  R30,R26
0011ee 01f0      	MOVW R30,R0
0011ef 5fec      	SUBI R30,LOW(-_units*2)
0011f0 4ffd      	SBCI R31,HIGH(-_units*2)
0011f1 940e 2180 	CALL __GETD1PF
0011f3 91af      	POP  R26
0011f4 91bf      	POP  R27
0011f5 918f      	POP  R24
0011f6 919f      	POP  R25
0011f7 940e 21ac 	CALL __SWAPD12
0011f9 940e 2092 	CALL __SUBD12
0011fb 91af      	POP  R26
0011fc 91bf      	POP  R27
0011fd 918f      	POP  R24
0011fe 919f      	POP  R25
0011ff 940e 21cd 	CALL __CPD12
001201 f530      	BRSH _0x51
                 ; 0000 073B             oscope_div = (units[next_unit].max - units[next_unit].min)/8;
001202 91e0 3a1d 	LDS  R30,_next_unit
001204 e0af      	LDI  R26,LOW(15)
001205 9fea      	MUL  R30,R26
001206 01f0      	MOVW R30,R0
001207 5fec      	SUBI R30,LOW(-_units*2)
001208 4ffd      	SBCI R31,HIGH(-_units*2)
001209 01df      	MOVW R26,R30
00120a 9634      	ADIW R30,4
00120b 940e 2180 	CALL __GETD1PF
00120d 937f      	PUSH R23
00120e 936f      	PUSH R22
00120f 93ff      	PUSH R31
001210 93ef      	PUSH R30
001211 01fd      	MOVW R30,R26
001212 940e 2180 	CALL __GETD1PF
001214 91af      	POP  R26
001215 91bf      	POP  R27
001216 918f      	POP  R24
001217 919f      	POP  R25
001218 940e 2097 	CALL __SUBD21
                +
00121a e0e8     +LDI R30 , LOW ( 0x8 )
00121b e0f0     +LDI R31 , HIGH ( 0x8 )
00121c e060     +LDI R22 , BYTE3 ( 0x8 )
00121d e070     +LDI R23 , BYTE4 ( 0x8 )
                 	__GETD1N 0x8
00121e 940e 2135 	CALL __DIVD21
001220 93e0 3a19 	STS  _oscope_div,R30
001222 93f0 3a1a 	STS  _oscope_div+1,R31
001224 9360 3a1b 	STS  _oscope_div+2,R22
001226 9370 3a1c 	STS  _oscope_div+3,R23
                 ; 0000 073C         // Disable sampling
                 ; 0000 073D         sampling_commence_disable();
                 _0x51:
001228 940e 0c15 	CALL _sampling_commence_disable
                 ; 0000 073E         sampling_disable();
00122a da63      	RCALL _sampling_disable
                 ; 0000 073F         dma_disable();
00122b db70      	RCALL _dma_disable
                 ; 0000 0740         // update coefficients
                 ; 0000 0741         min_div_to_coeff();
00122c def0      	RCALL _min_div_to_coeff
                 ; 0000 0742         current_unit = next_unit;
00122d 91e0 3a1d 	LDS  R30,_next_unit
00122f 93e0 3a1e 	STS  _current_unit,R30
                 ; 0000 0743         // enable sampling
                 ; 0000 0744         dma_init();
001231 db6e      	RCALL _dma_init
                 ; 0000 0745         sampling_enable();
001232 da67      	RCALL _sampling_enable
                 ; 0000 0746         sampling_commence_enable();
001233 940e 0c22 	CALL _sampling_commence_enable
                 ; 0000 0747     }
                 ; 0000 0748     ltoa(oscope_div,str);
                 _0x4E:
001235 91e0 3a19 	LDS  R30,_oscope_div
001237 91f0 3a1a 	LDS  R31,_oscope_div+1
001239 9160 3a1b 	LDS  R22,_oscope_div+2
00123b 9170 3a1c 	LDS  R23,_oscope_div+3
00123d 940e 219a 	CALL __PUTPARD1
00123f 01de      	MOVW R26,R28
001240 9614      	ADIW R26,4
001241 940e 1e52 	CALL _ltoa
                 ; 0000 0749     lcd_clear();
001243 940e 1b42 	CALL _lcd_clear
                 ; 0000 074A     lcd_putsf("PerDiv Val");
                +
001245 e2ad     +LDI R26 , LOW ( 2 * _0x0 + ( 45 ) )
001246 e1b3     +LDI R27 , HIGH ( 2 * _0x0 + ( 45 ) )
                 	__POINTW2FN _0x0,45
001247 c12b      	RJMP _0x20C0010
                 ; 0000 074B     lcd_gotoxy(0,1);
                 ; 0000 074C     lcd_puts(str);
                 ; 0000 074D     lcd_putchar(' ');
                 ; 0000 074E     lcd_putsf(units[current_unit].unit_msg);
                 ; 0000 074F }
                 ;void menu_display_set_div (void)
                 ; 0000 0751 {
                 _menu_display_set_div:
                 ; 0000 0752     if (key == KEY_UNITS)
001248 91a0 3a07 	LDS  R26,_key
00124a 30ac      	CPI  R26,LOW(0xC)
00124b f591      	BRNE _0x52
                 ; 0000 0753     {
                 ; 0000 0754         lcd_gotoxy(units[next_unit].number_input_max_digits + 2,1);
00124c 91e0 3a1d 	LDS  R30,_next_unit
00124e e0af      	LDI  R26,LOW(15)
00124f 9fea      	MUL  R30,R26
001250 01f0      	MOVW R30,R0
001251 5fec      	SUBI R30,LOW(-_units*2)
001252 4ffd      	SBCI R31,HIGH(-_units*2)
001253 963c      	ADIW R30,12
001254 91e4      	LPM  R30,Z
001255 5fee      	SUBI R30,-LOW(2)
001256 93ea      	ST   -Y,R30
001257 e0a1      	LDI  R26,LOW(1)
001258 940e 1b31 	CALL _lcd_gotoxy
                 ; 0000 0755         lcd_putsf("   ");
                +
00125a e3a8     +LDI R26 , LOW ( 2 * _0x0 + ( 56 ) )
00125b e1b3     +LDI R27 , HIGH ( 2 * _0x0 + ( 56 ) )
                 	__POINTW2FN _0x0,56
00125c 940e 1b89 	CALL _lcd_putsf
                 ; 0000 0756         next_unit++;
00125e 91e0 3a1d 	LDS  R30,_next_unit
001260 5fef      	SUBI R30,-LOW(1)
001261 93e0 3a1d 	STS  _next_unit,R30
                 ; 0000 0757         next_unit %= UNIT_COUNT;
001263 70e3      	ANDI R30,LOW(0x3)
001264 93e0 3a1d 	STS  _next_unit,R30
                 ; 0000 0758         lcd_gotoxy(units[next_unit].number_input_max_digits + 2,1);
001266 e0af      	LDI  R26,LOW(15)
001267 9fea      	MUL  R30,R26
001268 01f0      	MOVW R30,R0
001269 5fec      	SUBI R30,LOW(-_units*2)
00126a 4ffd      	SBCI R31,HIGH(-_units*2)
00126b 963c      	ADIW R30,12
00126c 91e4      	LPM  R30,Z
00126d 5fee      	SUBI R30,-LOW(2)
00126e 93ea      	ST   -Y,R30
00126f e0a1      	LDI  R26,LOW(1)
001270 940e 1b31 	CALL _lcd_gotoxy
                 ; 0000 0759         lcd_putsf(units[next_unit].unit_msg);
001272 91e0 3a1d 	LDS  R30,_next_unit
001274 e0af      	LDI  R26,LOW(15)
001275 9fea      	MUL  R30,R26
001276 01f0      	MOVW R30,R0
001277 5fec      	SUBI R30,LOW(-_units*2)
001278 4ffd      	SBCI R31,HIGH(-_units*2)
001279 9638      	ADIW R30,8
00127a 01df      	MOVW R26,R30
00127b 940e 1b89 	CALL _lcd_putsf
                 ; 0000 075A     }
                 ; 0000 075B     else
00127d c03c      	RJMP _0x53
                 _0x52:
                 ; 0000 075C     {
                 ; 0000 075D         if (current_menu_state != menu_state_set_div)
00127e 91a0 3a09 	LDS  R26,_current_menu_state
001280 30a6      	CPI  R26,LOW(0x6)
001281 f141      	BREQ _0x54
                 ; 0000 075E         {
                 ; 0000 075F             next_unit = current_unit;
001282 91e0 3a1e 	LDS  R30,_current_unit
001284 93e0 3a1d 	STS  _next_unit,R30
                 ; 0000 0760             lcd_clear();
001286 940e 1b42 	CALL _lcd_clear
                 ; 0000 0761             lcd_putsf("Set PerDiv Val:");
                +
001288 e3ac     +LDI R26 , LOW ( 2 * _0x0 + ( 60 ) )
001289 e1b3     +LDI R27 , HIGH ( 2 * _0x0 + ( 60 ) )
                 	__POINTW2FN _0x0,60
00128a 940e 1b89 	CALL _lcd_putsf
                 ; 0000 0762             lcd_gotoxy(units[next_unit].number_input_max_digits + 2,1);
00128c 91e0 3a1d 	LDS  R30,_next_unit
00128e e0af      	LDI  R26,LOW(15)
00128f 9fea      	MUL  R30,R26
001290 01f0      	MOVW R30,R0
001291 5fec      	SUBI R30,LOW(-_units*2)
001292 4ffd      	SBCI R31,HIGH(-_units*2)
001293 963c      	ADIW R30,12
001294 91e4      	LPM  R30,Z
001295 5fee      	SUBI R30,-LOW(2)
001296 93ea      	ST   -Y,R30
001297 e0a1      	LDI  R26,LOW(1)
001298 940e 1b31 	CALL _lcd_gotoxy
                 ; 0000 0763             lcd_putsf(units[next_unit].unit_msg);
00129a 91e0 3a1d 	LDS  R30,_next_unit
00129c e0af      	LDI  R26,LOW(15)
00129d 9fea      	MUL  R30,R26
00129e 01f0      	MOVW R30,R0
00129f 5fec      	SUBI R30,LOW(-_units*2)
0012a0 4ffd      	SBCI R31,HIGH(-_units*2)
0012a1 9638      	ADIW R30,8
0012a2 01df      	MOVW R26,R30
0012a3 940e 1b89 	CALL _lcd_putsf
                 ; 0000 0764             lcd_gotoxy(1,1);
0012a5 e0e1      	LDI  R30,LOW(1)
0012a6 93ea      	ST   -Y,R30
0012a7 e0a1      	LDI  R26,LOW(1)
0012a8 940e 1b31 	CALL _lcd_gotoxy
                 ; 0000 0765         }
                 ; 0000 0766         number_input(0,units[next_unit].number_input_max_digits,1,1);
                 _0x54:
0012aa e0e0      	LDI  R30,LOW(0)
0012ab 93ea      	ST   -Y,R30
0012ac 91e0 3a1d 	LDS  R30,_next_unit
0012ae e0af      	LDI  R26,LOW(15)
0012af 9fea      	MUL  R30,R26
0012b0 01f0      	MOVW R30,R0
0012b1 5fec      	SUBI R30,LOW(-_units*2)
0012b2 4ffd      	SBCI R31,HIGH(-_units*2)
0012b3 963c      	ADIW R30,12
0012b4 91e4      	LPM  R30,Z
0012b5 93ea      	ST   -Y,R30
0012b6 e0e1      	LDI  R30,LOW(1)
0012b7 93ea      	ST   -Y,R30
0012b8 e0a1      	LDI  R26,LOW(1)
0012b9 dd4b      	RCALL _number_input
                 ; 0000 0767     }
                 _0x53:
                 ; 0000 0768 }
0012ba 9508      	RET
                 ;
                 ;void menu_display_show_min (void)
                 ; 0000 076B {
                 _menu_display_show_min:
                 ; 0000 076C 	char str[9];
                 ; 0000 076D     if (number_input_number_cntr && (key == KEY_ENTER))
0012bb 9729      	SBIW R28,9
                 ;	str -> Y+0
0012bc 91e0 3a0a 	LDS  R30,_number_input_number_cntr_G000
0012be 30e0      	CPI  R30,0
0012bf f021      	BREQ _0x56
0012c0 91a0 3a07 	LDS  R26,_key
0012c2 30ae      	CPI  R26,LOW(0xE)
0012c3 f009      	BREQ _0x57
                 _0x56:
0012c4 c09c      	RJMP _0x55
                 _0x57:
                 ; 0000 076E     {
                 ; 0000 076F         oscope_min = number_input(0,0,0,0);
0012c5 e0e0      	LDI  R30,LOW(0)
0012c6 93ea      	ST   -Y,R30
0012c7 93ea      	ST   -Y,R30
0012c8 93ea      	ST   -Y,R30
0012c9 e0a0      	LDI  R26,LOW(0)
0012ca dd3a      	RCALL _number_input
0012cb 93e0 3a15 	STS  _oscope_min,R30
0012cd 93f0 3a16 	STS  _oscope_min+1,R31
0012cf 9360 3a17 	STS  _oscope_min+2,R22
0012d1 9370 3a18 	STS  _oscope_min+3,R23
                 ; 0000 0770         if (oscope_min < units[current_unit].min)
0012d3 91e0 3a1e 	LDS  R30,_current_unit
0012d5 e0af      	LDI  R26,LOW(15)
0012d6 9fea      	MUL  R30,R26
0012d7 01f0      	MOVW R30,R0
0012d8 5fec      	SUBI R30,LOW(-_units*2)
0012d9 4ffd      	SBCI R31,HIGH(-_units*2)
0012da 940e 2180 	CALL __GETD1PF
0012dc 91a0 3a15 	LDS  R26,_oscope_min
0012de 91b0 3a16 	LDS  R27,_oscope_min+1
0012e0 9180 3a17 	LDS  R24,_oscope_min+2
0012e2 9190 3a18 	LDS  R25,_oscope_min+3
0012e4 940e 21d2 	CALL __CPD21
0012e6 f494      	BRGE _0x58
                 ; 0000 0771             oscope_min = units[current_unit].min;
0012e7 91e0 3a1e 	LDS  R30,_current_unit
0012e9 e0af      	LDI  R26,LOW(15)
0012ea 9fea      	MUL  R30,R26
0012eb 01f0      	MOVW R30,R0
0012ec 5fec      	SUBI R30,LOW(-_units*2)
0012ed 4ffd      	SBCI R31,HIGH(-_units*2)
0012ee 940e 2180 	CALL __GETD1PF
0012f0 93e0 3a15 	STS  _oscope_min,R30
0012f2 93f0 3a16 	STS  _oscope_min+1,R31
0012f4 9360 3a17 	STS  _oscope_min+2,R22
0012f6 9370 3a18 	STS  _oscope_min+3,R23
                 ; 0000 0772         else if (units[current_unit].min > (units[current_unit].max - 8*oscope_div))
0012f8 c05d      	RJMP _0x59
                 _0x58:
0012f9 91e0 3a1e 	LDS  R30,_current_unit
0012fb e0af      	LDI  R26,LOW(15)
0012fc 9fea      	MUL  R30,R26
0012fd 01f0      	MOVW R30,R0
0012fe 5fec      	SUBI R30,LOW(-_units*2)
0012ff 4ffd      	SBCI R31,HIGH(-_units*2)
001300 01df      	MOVW R26,R30
001301 940e 2180 	CALL __GETD1PF
001303 937f      	PUSH R23
001304 936f      	PUSH R22
001305 93ff      	PUSH R31
001306 93ef      	PUSH R30
001307 01fd      	MOVW R30,R26
001308 9634      	ADIW R30,4
001309 940e 2180 	CALL __GETD1PF
00130b 937f      	PUSH R23
00130c 936f      	PUSH R22
00130d 93ff      	PUSH R31
00130e 93ef      	PUSH R30
00130f 91e0 3a19 	LDS  R30,_oscope_div
001311 91f0 3a1a 	LDS  R31,_oscope_div+1
001313 9160 3a1b 	LDS  R22,_oscope_div+2
001315 9170 3a1c 	LDS  R23,_oscope_div+3
                +
001317 e0a8     +LDI R26 , LOW ( 0x8 )
001318 e0b0     +LDI R27 , HIGH ( 0x8 )
001319 e080     +LDI R24 , BYTE3 ( 0x8 )
00131a e090     +LDI R25 , BYTE4 ( 0x8 )
                 	__GETD2N 0x8
00131b 940e 20d3 	CALL __MULD12U
00131d 91af      	POP  R26
00131e 91bf      	POP  R27
00131f 918f      	POP  R24
001320 919f      	POP  R25
001321 940e 21ac 	CALL __SWAPD12
001323 940e 2092 	CALL __SUBD12
001325 91af      	POP  R26
001326 91bf      	POP  R27
001327 918f      	POP  R24
001328 919f      	POP  R25
001329 940e 21cd 	CALL __CPD12
00132b f550      	BRSH _0x5A
                 ; 0000 0773             oscope_min = units[current_unit].max - 8*oscope_div;
00132c 91e0 3a1e 	LDS  R30,_current_unit
00132e e0af      	LDI  R26,LOW(15)
00132f 9fea      	MUL  R30,R26
001330 01f0      	MOVW R30,R0
001331 5fec      	SUBI R30,LOW(-_units*2)
001332 4ffd      	SBCI R31,HIGH(-_units*2)
001333 9634      	ADIW R30,4
001334 940e 2180 	CALL __GETD1PF
001336 937f      	PUSH R23
001337 936f      	PUSH R22
001338 93ff      	PUSH R31
001339 93ef      	PUSH R30
00133a 91e0 3a19 	LDS  R30,_oscope_div
00133c 91f0 3a1a 	LDS  R31,_oscope_div+1
00133e 9160 3a1b 	LDS  R22,_oscope_div+2
001340 9170 3a1c 	LDS  R23,_oscope_div+3
                +
001342 e0a8     +LDI R26 , LOW ( 0x8 )
001343 e0b0     +LDI R27 , HIGH ( 0x8 )
001344 e080     +LDI R24 , BYTE3 ( 0x8 )
001345 e090     +LDI R25 , BYTE4 ( 0x8 )
                 	__GETD2N 0x8
001346 940e 20d3 	CALL __MULD12U
001348 91af      	POP  R26
001349 91bf      	POP  R27
00134a 918f      	POP  R24
00134b 919f      	POP  R25
00134c 940e 2097 	CALL __SUBD21
00134e 93a0 3a15 	STS  _oscope_min,R26
001350 93b0 3a16 	STS  _oscope_min+1,R27
001352 9380 3a17 	STS  _oscope_min+2,R24
001354 9390 3a18 	STS  _oscope_min+3,R25
                 ; 0000 0774         // Disable sampling
                 ; 0000 0775         sampling_commence_disable();
                 _0x5A:
                 _0x59:
001356 940e 0c15 	CALL _sampling_commence_disable
                 ; 0000 0776         sampling_disable();
001358 940e 0c8e 	CALL _sampling_disable
                 ; 0000 0777         dma_disable();
00135a da41      	RCALL _dma_disable
                 ; 0000 0778         // update coefficients
                 ; 0000 0779         min_div_to_coeff();
00135b ddc1      	RCALL _min_div_to_coeff
                 ; 0000 077A         // enable sampling
                 ; 0000 077B         dma_init();
00135c da43      	RCALL _dma_init
                 ; 0000 077C         sampling_enable();
00135d 940e 0c9a 	CALL _sampling_enable
                 ; 0000 077D         sampling_commence_enable();
00135f 940e 0c22 	CALL _sampling_commence_enable
                 ; 0000 077E     }
                 ; 0000 077F     ltoa(oscope_min,str);
                 _0x55:
001361 91e0 3a15 	LDS  R30,_oscope_min
001363 91f0 3a16 	LDS  R31,_oscope_min+1
001365 9160 3a17 	LDS  R22,_oscope_min+2
001367 9170 3a18 	LDS  R23,_oscope_min+3
001369 940e 219a 	CALL __PUTPARD1
00136b 01de      	MOVW R26,R28
00136c 9614      	ADIW R26,4
00136d 940e 1e52 	CALL _ltoa
                 ; 0000 0780     lcd_clear();
00136f 940e 1b42 	CALL _lcd_clear
                 ; 0000 0781     lcd_putsf("Min Val");
                +
001371 e4ac     +LDI R26 , LOW ( 2 * _0x0 + ( 76 ) )
001372 e1b3     +LDI R27 , HIGH ( 2 * _0x0 + ( 76 ) )
                 	__POINTW2FN _0x0,76
                 _0x20C0010:
001373 940e 1b89 	CALL _lcd_putsf
                 ; 0000 0782     lcd_gotoxy(0,1);
001375 e0e0      	LDI  R30,LOW(0)
001376 93ea      	ST   -Y,R30
001377 e0a1      	LDI  R26,LOW(1)
001378 940e 1b31 	CALL _lcd_gotoxy
                 ; 0000 0783     lcd_puts(str);
00137a 01de      	MOVW R26,R28
00137b 940e 1b7a 	CALL _lcd_puts
                 ; 0000 0784     lcd_putchar(' ');
00137d e2a0      	LDI  R26,LOW(32)
00137e 940e 1b56 	CALL _lcd_putchar
                 ; 0000 0785     lcd_putsf(units[current_unit].unit_msg);
001380 91e0 3a1e 	LDS  R30,_current_unit
001382 e0af      	LDI  R26,LOW(15)
001383 9fea      	MUL  R30,R26
001384 01f0      	MOVW R30,R0
001385 5fec      	SUBI R30,LOW(-_units*2)
001386 4ffd      	SBCI R31,HIGH(-_units*2)
001387 9638      	ADIW R30,8
001388 01df      	MOVW R26,R30
001389 940e 1b89 	CALL _lcd_putsf
                 ; 0000 0786 }
00138b 9629      	ADIW R28,9
00138c 9508      	RET
                 ;void menu_display_set_min (void)
                 ; 0000 0788 {
                 _menu_display_set_min:
                 ; 0000 0789 	if (current_menu_state != menu_state_set_div)
00138d 91a0 3a09 	LDS  R26,_current_menu_state
00138f 30a6      	CPI  R26,LOW(0x6)
001390 f121      	BREQ _0x5B
                 ; 0000 078A     {
                 ; 0000 078B         lcd_clear();
001391 940e 1b42 	CALL _lcd_clear
                 ; 0000 078C         lcd_putsf("Set Min Val:");
                +
001393 e5a4     +LDI R26 , LOW ( 2 * _0x0 + ( 84 ) )
001394 e1b3     +LDI R27 , HIGH ( 2 * _0x0 + ( 84 ) )
                 	__POINTW2FN _0x0,84
001395 940e 1b89 	CALL _lcd_putsf
                 ; 0000 078D         lcd_gotoxy(units[current_unit].number_input_max_digits + 2,1);
001397 91e0 3a1e 	LDS  R30,_current_unit
001399 e0af      	LDI  R26,LOW(15)
00139a 9fea      	MUL  R30,R26
00139b 01f0      	MOVW R30,R0
00139c 5fec      	SUBI R30,LOW(-_units*2)
00139d 4ffd      	SBCI R31,HIGH(-_units*2)
00139e 963c      	ADIW R30,12
00139f 91e4      	LPM  R30,Z
0013a0 5fee      	SUBI R30,-LOW(2)
0013a1 93ea      	ST   -Y,R30
0013a2 e0a1      	LDI  R26,LOW(1)
0013a3 940e 1b31 	CALL _lcd_gotoxy
                 ; 0000 078E         lcd_putsf(units[current_unit].unit_msg);
0013a5 91e0 3a1e 	LDS  R30,_current_unit
0013a7 e0af      	LDI  R26,LOW(15)
0013a8 9fea      	MUL  R30,R26
0013a9 01f0      	MOVW R30,R0
0013aa 5fec      	SUBI R30,LOW(-_units*2)
0013ab 4ffd      	SBCI R31,HIGH(-_units*2)
0013ac 9638      	ADIW R30,8
0013ad 01df      	MOVW R26,R30
0013ae 940e 1b89 	CALL _lcd_putsf
                 ; 0000 078F         lcd_gotoxy(1,1);
0013b0 e0e1      	LDI  R30,LOW(1)
0013b1 93ea      	ST   -Y,R30
0013b2 e0a1      	LDI  R26,LOW(1)
0013b3 940e 1b31 	CALL _lcd_gotoxy
                 ; 0000 0790     }
                 ; 0000 0791     number_input(1,units[current_unit].number_input_max_digits,1,1);
                 _0x5B:
0013b5 e0e1      	LDI  R30,LOW(1)
0013b6 93ea      	ST   -Y,R30
0013b7 91e0 3a1e 	LDS  R30,_current_unit
0013b9 e0af      	LDI  R26,LOW(15)
0013ba 9fea      	MUL  R30,R26
0013bb 01f0      	MOVW R30,R0
0013bc 5fec      	SUBI R30,LOW(-_units*2)
0013bd 4ffd      	SBCI R31,HIGH(-_units*2)
0013be 963c      	ADIW R30,12
0013bf 91e4      	LPM  R30,Z
0013c0 93ea      	ST   -Y,R30
0013c1 e0e1      	LDI  R30,LOW(1)
                 _0x20C000F:
0013c2 93ea      	ST   -Y,R30
0013c3 e0a1      	LDI  R26,LOW(1)
0013c4 dc40      	RCALL _number_input
                 ; 0000 0792 }
0013c5 9508      	RET
                 ;
                 ;unsigned char gain_index = 0;
                 ;unsigned char next_gain_index;
                 ;void menu_display_show_gain (void)
                 ; 0000 0797 {
                 _menu_display_show_gain:
                 ; 0000 0798     char str[3];
                 ; 0000 0799     if ((current_menu_state == menu_state_set_gain) && (gain_index != next_gain_index) && (key == KEY_ENTER))
0013c6 9723      	SBIW R28,3
                 ;	str -> Y+0
0013c7 91a0 3a09 	LDS  R26,_current_menu_state
0013c9 30a8      	CPI  R26,LOW(0x8)
0013ca f451      	BRNE _0x5D
0013cb 91e0 3a20 	LDS  R30,_next_gain_index
0013cd 91a0 3a1f 	LDS  R26,_gain_index
0013cf 17ea      	CP   R30,R26
0013d0 f021      	BREQ _0x5D
0013d1 91a0 3a07 	LDS  R26,_key
0013d3 30ae      	CPI  R26,LOW(0xE)
0013d4 f009      	BREQ _0x5E
                 _0x5D:
0013d5 c017      	RJMP _0x5C
                 _0x5E:
                 ; 0000 079A     {
                 ; 0000 079B         gain_index = next_gain_index;
0013d6 91e0 3a20 	LDS  R30,_next_gain_index
0013d8 93e0 3a1f 	STS  _gain_index,R30
                 ; 0000 079C         // Disable sampeling
                 ; 0000 079D         sampling_commence_disable();
0013da 940e 0c15 	CALL _sampling_commence_disable
                 ; 0000 079E         sampling_disable();
0013dc 940e 0c8e 	CALL _sampling_disable
                 ; 0000 079F         dma_disable();
0013de 940e 0d9c 	CALL _dma_disable
                 ; 0000 07A0         // re-init ADC
                 ; 0000 07A1         adca_init(gain_index << 2);
0013e0 91e0 3a1f 	LDS  R30,_gain_index
0013e2 0fee      	LSL  R30
0013e3 0fee      	LSL  R30
0013e4 2fae      	MOV  R26,R30
0013e5 940e 0ce0 	CALL _adca_init
                 ; 0000 07A2         // Enable sampling
                 ; 0000 07A3         dma_init();
0013e7 940e 0da0 	CALL _dma_init
                 ; 0000 07A4         sampling_enable();
0013e9 940e 0c9a 	CALL _sampling_enable
                 ; 0000 07A5         sampling_commence_enable();
0013eb 940e 0c22 	CALL _sampling_commence_enable
                 ; 0000 07A6     }
                 ; 0000 07A7     itoa(1 << ((unsigned int)(gain_index)),str);
                 _0x5C:
0013ed 91e0 3a1f 	LDS  R30,_gain_index
0013ef e0a1      	LDI  R26,LOW(1)
0013f0 e0b0      	LDI  R27,HIGH(1)
0013f1 940e 20a8 	CALL __LSLW12
0013f3 93fa      	ST   -Y,R31
0013f4 93ea      	ST   -Y,R30
0013f5 01de      	MOVW R26,R28
0013f6 9612      	ADIW R26,2
0013f7 940e 1e24 	CALL _itoa
                 ; 0000 07A8     lcd_clear();
0013f9 940e 1b42 	CALL _lcd_clear
                 ; 0000 07A9     lcd_putsf("Gain = ");
                +
0013fb e6a1     +LDI R26 , LOW ( 2 * _0x0 + ( 97 ) )
0013fc e1b3     +LDI R27 , HIGH ( 2 * _0x0 + ( 97 ) )
                 	__POINTW2FN _0x0,97
0013fd 940e 1b89 	CALL _lcd_putsf
                 ; 0000 07AA     lcd_puts(str);
0013ff c04b      	RJMP _0x20C000E
                 ; 0000 07AB }
                 ;void menu_display_set_gain (void)
                 ; 0000 07AD {
                 _menu_display_set_gain:
                 ; 0000 07AE     unsigned char str[3];
                 ; 0000 07AF 	if (current_menu_state != menu_state_set_gain)
001400 9723      	SBIW R28,3
                 ;	str -> Y+0
001401 91a0 3a09 	LDS  R26,_current_menu_state
001403 30a8      	CPI  R26,LOW(0x8)
001404 f059      	BREQ _0x5F
                 ; 0000 07B0     {
                 ; 0000 07B1         next_gain_index = gain_index;
001405 91e0 3a1f 	LDS  R30,_gain_index
001407 93e0 3a20 	STS  _next_gain_index,R30
                 ; 0000 07B2         lcd_clear();
001409 940e 1b42 	CALL _lcd_clear
                 ; 0000 07B3         lcd_putsf("Set Gain: ");
                +
00140b e6a9     +LDI R26 , LOW ( 2 * _0x0 + ( 105 ) )
00140c e1b3     +LDI R27 , HIGH ( 2 * _0x0 + ( 105 ) )
                 	__POINTW2FN _0x0,105
00140d 940e 1b89 	CALL _lcd_putsf
                 ; 0000 07B4     }
                 ; 0000 07B5     else
00140f c021      	RJMP _0x60
                 _0x5F:
                 ; 0000 07B6     {
                 ; 0000 07B7         if (key == KEY_RIGHT)
001410 91a0 3a07 	LDS  R26,_key
001412 30a9      	CPI  R26,LOW(0x9)
001413 f469      	BRNE _0x61
                 ; 0000 07B8         {
                 ; 0000 07B9             next_gain_index++;
001414 91e0 3a20 	LDS  R30,_next_gain_index
001416 5fef      	SUBI R30,-LOW(1)
001417 93e0 3a20 	STS  _next_gain_index,R30
                 ; 0000 07BA             next_gain_index %= 7;
001419 91a0 3a20 	LDS  R26,_next_gain_index
00141b 27bb      	CLR  R27
00141c e0e7      	LDI  R30,LOW(7)
00141d e0f0      	LDI  R31,HIGH(7)
00141e 940e 213a 	CALL __MODW21
001420 c00e      	RJMP _0xBD
                 ; 0000 07BB         }
                 ; 0000 07BC         else if (key == KEY_LEFT)
                 _0x61:
001421 91a0 3a07 	LDS  R26,_key
001423 30a7      	CPI  R26,LOW(0x7)
001424 f461      	BRNE _0x63
                 ; 0000 07BD         {
                 ; 0000 07BE             next_gain_index--;
001425 91e0 3a20 	LDS  R30,_next_gain_index
001427 50e1      	SUBI R30,LOW(1)
001428 93e0 3a20 	STS  _next_gain_index,R30
                 ; 0000 07BF             if ((next_gain_index > 6))
00142a 91a0 3a20 	LDS  R26,_next_gain_index
00142c 30a7      	CPI  R26,LOW(0x7)
00142d f018      	BRLO _0x64
                 ; 0000 07C0                 next_gain_index = 0;
00142e e0e0      	LDI  R30,LOW(0)
                 _0xBD:
00142f 93e0 3a20 	STS  _next_gain_index,R30
                 ; 0000 07C1         }
                 _0x64:
                 ; 0000 07C2     }
                 _0x63:
                 _0x60:
                 ; 0000 07C3     lcd_gotoxy(10,0);
001431 e0ea      	LDI  R30,LOW(10)
001432 93ea      	ST   -Y,R30
001433 e0a0      	LDI  R26,LOW(0)
001434 940e 1b31 	CALL _lcd_gotoxy
                 ; 0000 07C4     lcd_putsf("  ");
                +
001436 e3a9     +LDI R26 , LOW ( 2 * _0x0 + ( 57 ) )
001437 e1b3     +LDI R27 , HIGH ( 2 * _0x0 + ( 57 ) )
                 	__POINTW2FN _0x0,57
001438 940e 1b89 	CALL _lcd_putsf
                 ; 0000 07C5     lcd_gotoxy(10,0);
00143a e0ea      	LDI  R30,LOW(10)
00143b 93ea      	ST   -Y,R30
00143c e0a0      	LDI  R26,LOW(0)
00143d 940e 1b31 	CALL _lcd_gotoxy
                 ; 0000 07C6     itoa(1 << ((unsigned int)(next_gain_index)),str);
00143f 91e0 3a20 	LDS  R30,_next_gain_index
001441 e0a1      	LDI  R26,LOW(1)
001442 e0b0      	LDI  R27,HIGH(1)
001443 940e 20a8 	CALL __LSLW12
001445 93fa      	ST   -Y,R31
001446 93ea      	ST   -Y,R30
001447 01de      	MOVW R26,R28
001448 9612      	ADIW R26,2
001449 940e 1e24 	CALL _itoa
                 ; 0000 07C7     lcd_puts(str);
                 _0x20C000E:
00144b 01de      	MOVW R26,R28
00144c 940e 1b7a 	CALL _lcd_puts
                 ; 0000 07C8 }
00144e 9623      	ADIW R28,3
00144f 9508      	RET
                 ;
                 ;flash struct _menu_state_data_
                 ;{
                 ;	void (* menu_fcn)();
                 ;	enum _menu_states_ menu_next_state[KEY_COUNT];
                 ;} menu_state_data[9] =
                 ;{
                 ;	{
                 ;		(void (*)()) menu_display_calib,
                 ;		{
                 ;			menu_state_invalid_state,	menu_state_invalid_state,
                 ;			menu_state_invalid_state,	menu_state_invalid_state,
                 ;			menu_state_invalid_state,	menu_state_invalid_state,
                 ;			menu_state_invalid_state,	menu_state_invalid_state,
                 ;			menu_state_invalid_state,	menu_state_invalid_state,
                 ;			menu_state_invalid_state,	menu_state_show_freq,
                 ;			menu_state_invalid_state,	menu_state_invalid_state,
                 ;			menu_state_invalid_state,	menu_state_invalid_state}},
                 ;	{
                 ;		(void (*)()) menu_display_show_freq,
                 ;		{
                 ;			menu_state_invalid_state,	menu_state_invalid_state,
                 ;			menu_state_invalid_state,	menu_state_invalid_state,
                 ;			menu_state_invalid_state,	menu_state_invalid_state,
                 ;			menu_state_invalid_state,	menu_state_show_gain,
                 ;			menu_state_invalid_state,	menu_state_show_div,
                 ;			menu_state_invalid_state,	menu_state_calib,
                 ;			menu_state_invalid_state,	menu_state_invalid_state,
                 ;			menu_state_set_freq,		menu_state_invalid_state}},
                 ;	{
                 ;		(void (*)()) menu_display_show_div,
                 ;		{
                 ;			menu_state_invalid_state,	menu_state_invalid_state,
                 ;			menu_state_invalid_state,	menu_state_invalid_state,
                 ;			menu_state_invalid_state,	menu_state_invalid_state,
                 ;			menu_state_invalid_state,	menu_state_show_freq,
                 ;			menu_state_invalid_state,	menu_state_show_min,
                 ;			menu_state_invalid_state,	menu_state_calib,
                 ;			menu_state_invalid_state,	menu_state_invalid_state,
                 ;			menu_state_set_div,			menu_state_invalid_state}},
                 ;	{
                 ;		(void (*)()) menu_display_show_min,
                 ;		{
                 ;			menu_state_invalid_state,	menu_state_invalid_state,
                 ;			menu_state_invalid_state,	menu_state_invalid_state,
                 ;			menu_state_invalid_state,	menu_state_invalid_state,
                 ;			menu_state_invalid_state,	menu_state_show_div,
                 ;			menu_state_invalid_state,	menu_state_show_gain,
                 ;			menu_state_invalid_state,	menu_state_calib,
                 ;			menu_state_invalid_state,	menu_state_invalid_state,
                 ;			menu_state_set_min,			menu_state_invalid_state}},
                 ;	{
                 ;		(void (*)()) menu_display_show_gain,
                 ;		{
                 ;			menu_state_invalid_state,	menu_state_invalid_state,
                 ;			menu_state_invalid_state,	menu_state_invalid_state,
                 ;			menu_state_invalid_state,	menu_state_invalid_state,
                 ;			menu_state_invalid_state,	menu_state_show_min,
                 ;			menu_state_invalid_state,	menu_state_show_freq,
                 ;			menu_state_invalid_state,	menu_state_calib,
                 ;			menu_state_invalid_state,	menu_state_invalid_state,
                 ;			menu_state_set_gain,		menu_state_invalid_state}},
                 ;	{
                 ;		(void (*)()) menu_display_set_freq,
                 ;		{
                 ;			menu_state_set_freq,		menu_state_set_freq,
                 ;			menu_state_set_freq,		menu_state_set_freq,
                 ;			menu_state_set_freq,		menu_state_set_freq,
                 ;			menu_state_set_freq,		menu_state_set_freq,
                 ;			menu_state_set_freq,		menu_state_set_freq,
                 ;			menu_state_set_freq,		menu_state_invalid_state,
                 ;			menu_state_invalid_state,	menu_state_show_freq,
                 ;			menu_state_show_freq,		menu_state_invalid_state}},
                 ;	{
                 ;		(void (*)()) menu_display_set_div,
                 ;		{
                 ;			menu_state_set_div,			menu_state_set_div,
                 ;			menu_state_set_div,			menu_state_set_div,
                 ;			menu_state_set_div,			menu_state_set_div,
                 ;			menu_state_set_div,			menu_state_set_div,
                 ;			menu_state_set_div,			menu_state_set_div,
                 ;			menu_state_set_div,			menu_state_invalid_state,
                 ;			menu_state_invalid_state,	menu_state_show_div,
                 ;			menu_state_show_div,		menu_state_invalid_state}},
                 ;	{
                 ;		(void (*)()) menu_display_set_min,
                 ;		{
                 ;			menu_state_set_min,			menu_state_set_min,
                 ;			menu_state_set_min,			menu_state_set_min,
                 ;			menu_state_set_min,			menu_state_set_min,
                 ;			menu_state_set_min,			menu_state_set_min,
                 ;			menu_state_set_min,			menu_state_set_min,
                 ;			menu_state_set_min,			menu_state_invalid_state,
                 ;			menu_state_set_min,			menu_state_show_min,
                 ;			menu_state_show_min,		menu_state_set_min}},
                 ;	{
                 ;		(void (*)()) menu_display_set_gain,
                 ;		{
                 ;			menu_state_invalid_state,	menu_state_invalid_state,
                 ;			menu_state_invalid_state,	menu_state_invalid_state,
                 ;			menu_state_invalid_state,	menu_state_invalid_state,
                 ;			menu_state_invalid_state,	menu_state_set_gain,
                 ;			menu_state_invalid_state,	menu_state_set_gain,
                 ;			menu_state_invalid_state,	menu_state_invalid_state,
                 ;			menu_state_invalid_state,	menu_state_show_gain,
                 ;			menu_state_show_gain,		menu_state_invalid_state}}
                 ;};
                 ;
                 ;void KP_function (void)
                 ; 0000 0836 {
                 _KP_function:
                 ; 0000 0837     next_menu_state = menu_state_data[current_menu_state].menu_next_state[key];
001450 91e0 3a09 	LDS  R30,_current_menu_state
001452 e1a2      	LDI  R26,LOW(18)
001453 9fea      	MUL  R30,R26
001454 01f0      	MOVW R30,R0
001455 5ce0      	SUBI R30,LOW(-_menu_state_data*2)
001456 4ffd      	SBCI R31,HIGH(-_menu_state_data*2)
001457 9632      	ADIW R30,2
001458 01df      	MOVW R26,R30
001459 91e0 3a07 	LDS  R30,_key
00145b e0f0      	LDI  R31,0
00145c 0fea      	ADD  R30,R26
00145d 1ffb      	ADC  R31,R27
00145e 9004      	LPM  R0,Z
00145f 9200 3a08 	STS  _next_menu_state,R0
                 ; 0000 0838 	if (next_menu_state != menu_state_invalid_state)
001461 91a0 3a08 	LDS  R26,_next_menu_state
001463 30a9      	CPI  R26,LOW(0x9)
001464 f071      	BREQ _0x65
                 ; 0000 0839     {
                 ; 0000 083A 		(*menu_state_data[next_menu_state].menu_fcn)();
001465 91e0 3a08 	LDS  R30,_next_menu_state
001467 e1a2      	LDI  R26,LOW(18)
001468 9fea      	MUL  R30,R26
001469 01f0      	MOVW R30,R0
00146a 5ce0      	SUBI R30,LOW(-_menu_state_data*2)
00146b 4ffd      	SBCI R31,HIGH(-_menu_state_data*2)
00146c 940e 217c 	CALL __GETW1PF
00146e 9509      	ICALL
                 ; 0000 083B         current_menu_state = next_menu_state;
00146f 91e0 3a08 	LDS  R30,_next_menu_state
001471 93e0 3a09 	STS  _current_menu_state,R30
                 ; 0000 083C     }
                 ; 0000 083D }
                 _0x65:
001473 9508      	RET
                 ;
                 ;// PORTD interrupt 0 service routine
                 ;interrupt [PORTD_INT0_vect] void portd_int0_isr(void)
                 ; 0000 0841 {
                 _portd_int0_isr:
001474 93ea      	ST   -Y,R30
001475 93fa      	ST   -Y,R31
001476 b7ef      	IN   R30,SREG
001477 93ea      	ST   -Y,R30
                 ; 0000 0842 // write your code here
                 ; 0000 0843     key_col_pos_temp = ((PORTD.IN >> 4) & 0x0F); // record temporary column
001478 91e0 0668 	LDS  R30,1640
00147a 95e2      	SWAP R30
00147b 70ef      	ANDI R30,LOW(0xF)
00147c 2ede      	MOV  R13,R30
                 ; 0000 0844     PORTD.INT0MASK = 0x00; // disable keypad port interrupt
00147d e0e0      	LDI  R30,LOW(0)
00147e 93e0 066a 	STS  1642,R30
                 ; 0000 0845     PORTD.INTFLAGS = 0x01;
001480 e0e1      	LDI  R30,LOW(1)
001481 93e0 066c 	STS  1644,R30
                 ; 0000 0846     TCF0.CNT = 0x0000; // clear keypad timer counter
001483 e0e0      	LDI  R30,LOW(0)
001484 e0f0      	LDI  R31,HIGH(0)
001485 93e0 0b20 	STS  2848,R30
001487 93f0 0b21 	STS  2848+1,R31
                 ; 0000 0847     TCF0.CTRLA = (TCF0.CTRLA & (~TC1_CLKSEL_gm)) | TC_CLKSEL_DIV64_gc; // enable timer counting
001489 91e0 0b00 	LDS  R30,2816
00148b 7fe0      	ANDI R30,LOW(0xF0)
00148c 60e5      	ORI  R30,LOW(0x5)
00148d 93e0 0b00 	STS  2816,R30
                 ; 0000 0848 }
00148f 91e9      	LD   R30,Y+
001490 bfef      	OUT  SREG,R30
001491 91f9      	LD   R31,Y+
001492 91e9      	LD   R30,Y+
001493 9518      	RETI
                 ;
                 ;// Timer/counter TCF0 Overflow/Underflow interrupt service routine
                 ;interrupt [TCF0_OVF_vect] void tcf0_overflow_isr(void)
                 ; 0000 084C {
                 _tcf0_overflow_isr:
001494 920a      	ST   -Y,R0
001495 921a      	ST   -Y,R1
001496 92fa      	ST   -Y,R15
001497 936a      	ST   -Y,R22
001498 937a      	ST   -Y,R23
001499 938a      	ST   -Y,R24
00149a 939a      	ST   -Y,R25
00149b 93aa      	ST   -Y,R26
00149c 93ba      	ST   -Y,R27
00149d 93ea      	ST   -Y,R30
00149e 93fa      	ST   -Y,R31
00149f b7ef      	IN   R30,SREG
0014a0 93ea      	ST   -Y,R30
                 ; 0000 084D // write your code here
                 ; 0000 084E     TCF0.CTRLA = 0x00; // disable keypad timer counting
0014a1 e0e0      	LDI  R30,LOW(0)
0014a2 93e0 0b00 	STS  2816,R30
                 ; 0000 084F     TCF0.CNT = 0x0001;
0014a4 e0e1      	LDI  R30,LOW(1)
0014a5 e0f0      	LDI  R31,HIGH(1)
0014a6 93e0 0b20 	STS  2848,R30
0014a8 93f0 0b21 	STS  2848+1,R31
                 ; 0000 0850     if (((PORTD.IN >> 4) & 0x0F) == key_col_pos_temp)
0014aa 91e0 0668 	LDS  R30,1640
0014ac e0f0      	LDI  R31,0
0014ad 940e 20b8 	CALL __ASRW4
0014af 70ef      	ANDI R30,LOW(0xF)
0014b0 70f0      	ANDI R31,HIGH(0xF)
0014b1 01df      	MOVW R26,R30
0014b2 2ded      	MOV  R30,R13
0014b3 e0f0      	LDI  R31,0
0014b4 17ea      	CP   R30,R26
0014b5 07fb      	CPC  R31,R27
0014b6 f011      	BREQ PC+3
0014b7 940c 150d 	JMP _0x66
                 ; 0000 0851     {
                 ; 0000 0852         PORTD.DIR = 0xF0;
0014b9 efe0      	LDI  R30,LOW(240)
0014ba 93e0 0660 	STS  1632,R30
                 ; 0000 0853         PORTD.OUT = 0xF0;
0014bc 93e0 0664 	STS  1636,R30
                 ; 0000 0854         key_row_pos = PORTD.IN & 0x0F;
0014be 91e0 0668 	LDS  R30,1640
0014c0 70ef      	ANDI R30,LOW(0xF)
0014c1 93e0 3a05 	STS  _key_row_pos,R30
                 ; 0000 0855         switch (key_col_pos_temp)
0014c3 2ded      	MOV  R30,R13
0014c4 e0f0      	LDI  R31,0
                 ; 0000 0856         {
                 ; 0000 0857         case 0x01:
0014c5 30e1      	CPI  R30,LOW(0x1)
0014c6 e0a0      	LDI  R26,HIGH(0x1)
0014c7 07fa      	CPC  R31,R26
0014c8 f411      	BRNE _0x6A
                 ; 0000 0858             key_col_pos = 0;
0014c9 24cc      	CLR  R12
                 ; 0000 0859             break;
0014ca c012      	RJMP _0x69
                 ; 0000 085A         case 0x02:
                 _0x6A:
0014cb 30e2      	CPI  R30,LOW(0x2)
0014cc e0a0      	LDI  R26,HIGH(0x2)
0014cd 07fa      	CPC  R31,R26
0014ce f411      	BRNE _0x6B
                 ; 0000 085B             key_col_pos = 1;
0014cf e0e1      	LDI  R30,LOW(1)
0014d0 c00b      	RJMP _0xBE
                 ; 0000 085C             break;
                 ; 0000 085D         case 0x04:
                 _0x6B:
0014d1 30e4      	CPI  R30,LOW(0x4)
0014d2 e0a0      	LDI  R26,HIGH(0x4)
0014d3 07fa      	CPC  R31,R26
0014d4 f411      	BRNE _0x6C
                 ; 0000 085E             key_col_pos = 2;
0014d5 e0e2      	LDI  R30,LOW(2)
0014d6 c005      	RJMP _0xBE
                 ; 0000 085F             break;
                 ; 0000 0860         case 0x08:
                 _0x6C:
0014d7 30e8      	CPI  R30,LOW(0x8)
0014d8 e0a0      	LDI  R26,HIGH(0x8)
0014d9 07fa      	CPC  R31,R26
0014da f411      	BRNE _0x69
                 ; 0000 0861             key_col_pos = 3;
0014db e0e3      	LDI  R30,LOW(3)
                 _0xBE:
0014dc 2ece      	MOV  R12,R30
                 ; 0000 0862             break;
                 ; 0000 0863         }
                 _0x69:
                 ; 0000 0864         switch ((~key_row_pos) & 0x0F)
0014dd 91e0 3a05 	LDS  R30,_key_row_pos
0014df e0f0      	LDI  R31,0
0014e0 95e0      	COM  R30
0014e1 95f0      	COM  R31
0014e2 70ef      	ANDI R30,LOW(0xF)
0014e3 70f0      	ANDI R31,HIGH(0xF)
                 ; 0000 0865         {
                 ; 0000 0866         case 0x01:
0014e4 30e1      	CPI  R30,LOW(0x1)
0014e5 e0a0      	LDI  R26,HIGH(0x1)
0014e6 07fa      	CPC  R31,R26
0014e7 f411      	BRNE _0x71
                 ; 0000 0867             key_row_pos = 0;
0014e8 e0e0      	LDI  R30,LOW(0)
0014e9 c011      	RJMP _0xBF
                 ; 0000 0868             break;
                 ; 0000 0869         case 0x02:
                 _0x71:
0014ea 30e2      	CPI  R30,LOW(0x2)
0014eb e0a0      	LDI  R26,HIGH(0x2)
0014ec 07fa      	CPC  R31,R26
0014ed f411      	BRNE _0x72
                 ; 0000 086A             key_row_pos = 1;
0014ee e0e1      	LDI  R30,LOW(1)
0014ef c00b      	RJMP _0xBF
                 ; 0000 086B             break;
                 ; 0000 086C         case 0x04:
                 _0x72:
0014f0 30e4      	CPI  R30,LOW(0x4)
0014f1 e0a0      	LDI  R26,HIGH(0x4)
0014f2 07fa      	CPC  R31,R26
0014f3 f411      	BRNE _0x73
                 ; 0000 086D             key_row_pos = 2;
0014f4 e0e2      	LDI  R30,LOW(2)
0014f5 c005      	RJMP _0xBF
                 ; 0000 086E             break;
                 ; 0000 086F         case 0x08:
                 _0x73:
0014f6 30e8      	CPI  R30,LOW(0x8)
0014f7 e0a0      	LDI  R26,HIGH(0x8)
0014f8 07fa      	CPC  R31,R26
0014f9 f419      	BRNE _0x70
                 ; 0000 0870             key_row_pos = 3;
0014fa e0e3      	LDI  R30,LOW(3)
                 _0xBF:
0014fb 93e0 3a05 	STS  _key_row_pos,R30
                 ; 0000 0871             break;
                 ; 0000 0872         }
                 _0x70:
                 ; 0000 0873         key_pos = 0x0F & (key_row_pos | (key_col_pos << 0x02));
0014fd 2dec      	MOV  R30,R12
0014fe 0fee      	LSL  R30
0014ff 0fee      	LSL  R30
001500 91a0 3a05 	LDS  R26,_key_row_pos
001502 2bea      	OR   R30,R26
001503 70ef      	ANDI R30,LOW(0xF)
001504 93e0 3a06 	STS  _key_pos,R30
                 ; 0000 0874 		key = key_pos_to_key[key_pos];
001506 e0f0      	LDI  R31,0
001507 50ec      	SUBI R30,LOW(-_key_pos_to_key*2)
001508 4ffe      	SBCI R31,HIGH(-_key_pos_to_key*2)
001509 9004      	LPM  R0,Z
00150a 9200 3a07 	STS  _key,R0
                 ; 0000 0875         KP_function();
00150c df43      	RCALL _KP_function
                 ; 0000 0876     }
                 ; 0000 0877     PORTD.DIR = 0x0F;
                 _0x66:
00150d e0ef      	LDI  R30,LOW(15)
00150e 93e0 0660 	STS  1632,R30
                 ; 0000 0878     PORTD.OUT = 0x0F;
001510 93e0 0664 	STS  1636,R30
                 ; 0000 0879     PORTD.INTFLAGS = 0x01;
001512 e0e1      	LDI  R30,LOW(1)
001513 93e0 066c 	STS  1644,R30
                 ; 0000 087A     PORTD.INT0MASK = 0xF0;
001515 efe0      	LDI  R30,LOW(240)
001516 93e0 066a 	STS  1642,R30
                 ; 0000 087B }
001518 91e9      	LD   R30,Y+
001519 bfef      	OUT  SREG,R30
00151a 91f9      	LD   R31,Y+
00151b 91e9      	LD   R30,Y+
00151c 91b9      	LD   R27,Y+
00151d 91a9      	LD   R26,Y+
00151e 9199      	LD   R25,Y+
00151f 9189      	LD   R24,Y+
001520 9179      	LD   R23,Y+
001521 9169      	LD   R22,Y+
001522 90f9      	LD   R15,Y+
001523 9019      	LD   R1,Y+
001524 9009      	LD   R0,Y+
001525 9518      	RETI
                 ;
                 ;//______________________________________________________________FFT_FUNCTIONS_&_VARIABLES_______________________________________
                 ;
                 ;inline void add (complex *x, complex y)
                 ; 0000 0880 {
                 _add:
                 ; 0000 0881     x->real += y.real;
                 ;	*x -> Y+8
                 ;	y -> Y+0
001526 85a8      	LDD  R26,Y+8
001527 85b9      	LDD  R27,Y+8+1
001528 93bf      	PUSH R27
001529 93af      	PUSH R26
00152a 940e 2171 	CALL __GETD1P
00152c 940e 218b 	CALL __GETD2S0
00152e 940e 1f8f 	CALL __ADDF12
001530 91af      	POP  R26
001531 91bf      	POP  R27
001532 940e 2177 	CALL __PUTDP1
                 ; 0000 0882     x->imag += y.imag;
001534 85e8      	LDD  R30,Y+8
001535 85f9      	LDD  R31,Y+8+1
001536 9634      	ADIW R30,4
001537 93ff      	PUSH R31
001538 93ef      	PUSH R30
001539 01df      	MOVW R26,R30
00153a 940e 2171 	CALL __GETD1P
                +
00153c 81ac     +LDD R26 , Y + 4
00153d 81bd     +LDD R27 , Y + 4 + 1
00153e 818e     +LDD R24 , Y + 4 + 2
00153f 819f     +LDD R25 , Y + 4 + 3
                 	__GETD2S 4
001540 940e 1f8f 	CALL __ADDF12
001542 91af      	POP  R26
001543 91bf      	POP  R27
001544 940e 2177 	CALL __PUTDP1
                 ; 0000 0883     return;
001546 962a      	ADIW R28,10
001547 9508      	RET
                 ; 0000 0884 }
                 ;
                 ;inline void mul (complex *x, complex y)
                 ; 0000 0887 {
                 _mul:
                 ; 0000 0888     float temp;
                 ; 0000 0889     temp = x->real*y.real - x->imag*y.imag;
001548 9724      	SBIW R28,4
                 ;	*x -> Y+12
                 ;	y -> Y+4
                 ;	temp -> Y+0
001549 85ac      	LDD  R26,Y+12
00154a 85bd      	LDD  R27,Y+12+1
00154b 940e 2171 	CALL __GETD1P
                +
00154d 81ac     +LDD R26 , Y + 4
00154e 81bd     +LDD R27 , Y + 4 + 1
00154f 818e     +LDD R24 , Y + 4 + 2
001550 819f     +LDD R25 , Y + 4 + 3
                 	__GETD2S 4
001551 940e 1fdf 	CALL __MULF12
001553 937f      	PUSH R23
001554 936f      	PUSH R22
001555 93ff      	PUSH R31
001556 93ef      	PUSH R30
001557 85ec      	LDD  R30,Y+12
001558 85fd      	LDD  R31,Y+12+1
                +
001559 81a4     +LDD R26 , Z + 4
00155a 81b5     +LDD R27 , Z + 4 + 1
00155b 8186     +LDD R24 , Z + 4 + 2
00155c 8197     +LDD R25 , Z + 4 + 3
                 	__GETD2Z 4
                +
00155d 85e8     +LDD R30 , Y + 8
00155e 85f9     +LDD R31 , Y + 8 + 1
00155f 856a     +LDD R22 , Y + 8 + 2
001560 857b     +LDD R23 , Y + 8 + 3
                 	__GETD1S 8
001561 940e 1fdf 	CALL __MULF12
001563 91af      	POP  R26
001564 91bf      	POP  R27
001565 918f      	POP  R24
001566 919f      	POP  R25
001567 940e 21ac 	CALL __SWAPD12
001569 940e 1f88 	CALL __SUBF12
00156b 940e 2190 	CALL __PUTD1S0
                 ; 0000 088A     x->imag = x->imag*y.real + x->real*y.imag;
00156d 85ec      	LDD  R30,Y+12
00156e 85fd      	LDD  R31,Y+12+1
                +
00156f 81a4     +LDD R26 , Z + 4
001570 81b5     +LDD R27 , Z + 4 + 1
001571 8186     +LDD R24 , Z + 4 + 2
001572 8197     +LDD R25 , Z + 4 + 3
                 	__GETD2Z 4
                +
001573 81ec     +LDD R30 , Y + 4
001574 81fd     +LDD R31 , Y + 4 + 1
001575 816e     +LDD R22 , Y + 4 + 2
001576 817f     +LDD R23 , Y + 4 + 3
                 	__GETD1S 4
001577 940e 1fdf 	CALL __MULF12
001579 937f      	PUSH R23
00157a 936f      	PUSH R22
00157b 93ff      	PUSH R31
00157c 93ef      	PUSH R30
00157d 85ac      	LDD  R26,Y+12
00157e 85bd      	LDD  R27,Y+12+1
00157f 940e 2171 	CALL __GETD1P
                +
001581 85a8     +LDD R26 , Y + 8
001582 85b9     +LDD R27 , Y + 8 + 1
001583 858a     +LDD R24 , Y + 8 + 2
001584 859b     +LDD R25 , Y + 8 + 3
                 	__GETD2S 8
001585 940e 1fdf 	CALL __MULF12
001587 91af      	POP  R26
001588 91bf      	POP  R27
001589 918f      	POP  R24
00158a 919f      	POP  R25
00158b 940e 1f8f 	CALL __ADDF12
                +
00158d 85ac     +LDD R26 , Y + 12
00158e 85bd     +LDD R27 , Y + 12 + 1
00158f 9614     +ADIW R26 , 4
001590 940e 2177+CALL __PUTDP1
                 	__PUTD1SNS 12,4
                 ; 0000 088B     x->real = temp;
001592 940e 2186 	CALL __GETD1S0
001594 85ac      	LDD  R26,Y+12
001595 85bd      	LDD  R27,Y+12+1
001596 940e 2177 	CALL __PUTDP1
                 ; 0000 088C     return;
001598 c065      	RJMP _0x20C000D
                 ; 0000 088D }
                 ;
                 ;inline void neg (complex *x)
                 ; 0000 0890 {
                 _neg:
                 ; 0000 0891     x->real = -x->real;
001599 93ba      	ST   -Y,R27
00159a 93aa      	ST   -Y,R26
                 ;	*x -> Y+0
00159b 81a8      	LD   R26,Y
00159c 81b9      	LDD  R27,Y+1
00159d 940e 2171 	CALL __GETD1P
00159f 940e 1ee9 	CALL __ANEGF1
0015a1 940e 2177 	CALL __PUTDP1
                 ; 0000 0892     x->imag = -x->imag;
0015a3 81a8      	LD   R26,Y
0015a4 81b9      	LDD  R27,Y+1
0015a5 9614      	ADIW R26,4
0015a6 940e 2171 	CALL __GETD1P
0015a8 940e 1ee9 	CALL __ANEGF1
                +
0015aa 81a8     +LDD R26 , Y + 0
0015ab 81b9     +LDD R27 , Y + 0 + 1
0015ac 9614     +ADIW R26 , 4
0015ad 940e 2177+CALL __PUTDP1
                 	__PUTD1SNS 0,4
                 ; 0000 0893     return;
0015af 940c 1b40 	JMP  _0x20C0008
                 ; 0000 0894 }
                 ;
                 ;flash complex W[fft_N] =
                 ;{
                 ;    {1.0,0.0},
                 ;    {0.99992472,0.01227153838},
                 ;    {0.99969882,0.02454122901},
                 ;    {0.99932235,0.0368072242},
                 ;    {0.99879545,0.0490676761},
                 ;    {0.9981181,0.061320737},
                 ;    {0.99729043,0.0735645667},
                 ;    {0.99631262,0.0857973099},
                 ;    {0.99518472,0.0980171412},
                 ;    {0.99390697,0.110222206},
                 ;    {0.99247956,0.122410677},
                 ;    {0.99090266,0.134580702},
                 ;    {0.98917651,0.146730468},
                 ;    {0.98730141,0.15885815},
                 ;    {0.98527765,0.170961887},
                 ;    {0.98310548,0.183039889},
                 ;    {0.98078525,0.195090324},
                 ;    {0.97831738,0.207111374},
                 ;    {0.97570211,0.219101235},
                 ;    {0.97293997,0.231058106},
                 ;    {0.97003126,0.242980182},
                 ;    {0.96697646,0.254865646},
                 ;    {0.96377605,0.266712755},
                 ;    {0.9604305,0.27851969},
                 ;    {0.95694035,0.290284663},
                 ;    {0.95330602,0.302005947},
                 ;    {0.94952816,0.313681751},
                 ;    {0.9456073,0.32531029},
                 ;    {0.94154406,0.33688986},
                 ;    {0.93733901,0.34841868},
                 ;    {0.93299282,0.35989505},
                 ;    {0.92850608,0.37131721},
                 ;    {0.9238795,0.38268343},
                 ;    {0.91911387,0.39399204},
                 ;    {0.91420978,0.40524131},
                 ;    {0.909168,0.41642955},
                 ;    {0.90398932,0.42755508},
                 ;    {0.89867449,0.43861625},
                 ;    {0.8932243,0.44961134},
                 ;    {0.88763964,0.46053872},
                 ;    {0.88192129,0.47139674},
                 ;    {0.87607008,0.48218378},
                 ;    {0.87008697,0.4928982},
                 ;    {0.86397284,0.50353837},
                 ;    {0.8577286,0.51410276},
                 ;    {0.8513552,0.52458966},
                 ;    {0.84485358,0.53499764},
                 ;    {0.83822471,0.54532498},
                 ;    {0.8314696,0.55557024},
                 ;    {0.82458931,0.56573182},
                 ;    {0.81758481,0.57580817},
                 ;    {0.81045717,0.58579785},
                 ;    {0.80320752,0.59569931},
                 ;    {0.79583693,0.60551107},
                 ;    {0.78834641,0.61523157},
                 ;    {0.78073722,0.62485951},
                 ;    {0.77301043,0.63439327},
                 ;    {0.76516724,0.64383155},
                 ;    {0.75720882,0.65317285},
                 ;    {0.74913639,0.6624158},
                 ;    {0.74095112,0.67155898},
                 ;    {0.73265427,0.680601},
                 ;    {0.7242471,0.68954057},
                 ;    {0.71573085,0.69837624},
                 ;    {0.70710677,0.70710677},
                 ;    {0.69837624,0.71573085},
                 ;    {0.68954057,0.7242471},
                 ;    {0.680601,0.73265427},
                 ;    {0.67155898,0.74095112},
                 ;    {0.6624158,0.74913639},
                 ;    {0.65317285,0.75720882},
                 ;    {0.64383155,0.76516724},
                 ;    {0.63439327,0.77301043},
                 ;    {0.62485951,0.78073722},
                 ;    {0.61523157,0.78834641},
                 ;    {0.60551107,0.79583693},
                 ;    {0.59569931,0.80320752},
                 ;    {0.58579785,0.81045717},
                 ;    {0.57580817,0.81758481},
                 ;    {0.56573182,0.82458931},
                 ;    {0.55557024,0.8314696},
                 ;    {0.54532498,0.83822471},
                 ;    {0.53499764,0.84485358},
                 ;    {0.52458966,0.8513552},
                 ;    {0.51410276,0.8577286},
                 ;    {0.50353837,0.86397284},
                 ;    {0.4928982,0.87008697},
                 ;    {0.48218378,0.87607008},
                 ;    {0.47139674,0.88192129},
                 ;    {0.46053872,0.88763964},
                 ;    {0.44961134,0.8932243},
                 ;    {0.43861625,0.89867449},
                 ;    {0.42755508,0.90398932},
                 ;    {0.41642955,0.909168},
                 ;    {0.40524131,0.91420978},
                 ;    {0.39399204,0.91911387},
                 ;    {0.38268343,0.9238795},
                 ;    {0.37131721,0.92850608},
                 ;    {0.35989505,0.93299282},
                 ;    {0.34841868,0.93733901},
                 ;    {0.33688986,0.94154406},
                 ;    {0.32531029,0.9456073},
                 ;    {0.313681751,0.94952816},
                 ;    {0.302005947,0.95330602},
                 ;    {0.290284663,0.95694035},
                 ;    {0.27851969,0.9604305},
                 ;    {0.266712755,0.96377605},
                 ;    {0.254865646,0.96697646},
                 ;    {0.242980182,0.97003126},
                 ;    {0.231058106,0.97293997},
                 ;    {0.219101235,0.97570211},
                 ;    {0.207111374,0.97831738},
                 ;    {0.195090324,0.98078525},
                 ;    {0.183039889,0.98310548},
                 ;    {0.170961887,0.98527765},
                 ;    {0.15885815,0.98730141},
                 ;    {0.146730468,0.98917651},
                 ;    {0.134580702,0.99090266},
                 ;    {0.122410677,0.99247956},
                 ;    {0.110222206,0.99390697},
                 ;    {0.0980171412,0.99518472},
                 ;    {0.0857973099,0.99631262},
                 ;    {0.0735645667,0.99729043},
                 ;    {0.061320737,0.9981181},
                 ;    {0.0490676761,0.99879545},
                 ;    {0.0368072242,0.99932235},
                 ;    {0.02454122901,0.99969882},
                 ;    {0.01227153838,0.99992472},
                 ;    {0.0,1.0},
                 ;    {-0.01227153838,0.99992472},
                 ;    {-0.02454122901,0.99969882},
                 ;    {-0.0368072242,0.99932235},
                 ;    {-0.0490676761,0.99879545},
                 ;    {-0.061320737,0.9981181},
                 ;    {-0.0735645667,0.99729043},
                 ;    {-0.0857973099,0.99631262},
                 ;    {-0.0980171412,0.99518472},
                 ;    {-0.110222206,0.99390697},
                 ;    {-0.122410677,0.99247956},
                 ;    {-0.134580702,0.99090266},
                 ;    {-0.146730468,0.98917651},
                 ;    {-0.15885815,0.98730141},
                 ;    {-0.170961887,0.98527765},
                 ;    {-0.183039889,0.98310548},
                 ;    {-0.195090324,0.98078525},
                 ;    {-0.207111374,0.97831738},
                 ;    {-0.219101235,0.97570211},
                 ;    {-0.231058106,0.97293997},
                 ;    {-0.242980182,0.97003126},
                 ;    {-0.254865646,0.96697646},
                 ;    {-0.266712755,0.96377605},
                 ;    {-0.27851969,0.9604305},
                 ;    {-0.290284663,0.95694035},
                 ;    {-0.302005947,0.95330602},
                 ;    {-0.313681751,0.94952816},
                 ;    {-0.32531029,0.9456073},
                 ;    {-0.33688986,0.94154406},
                 ;    {-0.34841868,0.93733901},
                 ;    {-0.35989505,0.93299282},
                 ;    {-0.37131721,0.92850608},
                 ;    {-0.38268343,0.9238795},
                 ;    {-0.39399204,0.91911387},
                 ;    {-0.40524131,0.91420978},
                 ;    {-0.41642955,0.909168},
                 ;    {-0.42755508,0.90398932},
                 ;    {-0.43861625,0.89867449},
                 ;    {-0.44961134,0.8932243},
                 ;    {-0.46053872,0.88763964},
                 ;    {-0.47139674,0.88192129},
                 ;    {-0.48218378,0.87607008},
                 ;    {-0.4928982,0.87008697},
                 ;    {-0.50353837,0.86397284},
                 ;    {-0.51410276,0.8577286},
                 ;    {-0.52458966,0.8513552},
                 ;    {-0.53499764,0.84485358},
                 ;    {-0.54532498,0.83822471},
                 ;    {-0.55557024,0.8314696},
                 ;    {-0.56573182,0.82458931},
                 ;    {-0.57580817,0.81758481},
                 ;    {-0.58579785,0.81045717},
                 ;    {-0.59569931,0.80320752},
                 ;    {-0.60551107,0.79583693},
                 ;    {-0.61523157,0.78834641},
                 ;    {-0.62485951,0.78073722},
                 ;    {-0.63439327,0.77301043},
                 ;    {-0.64383155,0.76516724},
                 ;    {-0.65317285,0.75720882},
                 ;    {-0.6624158,0.74913639},
                 ;    {-0.67155898,0.74095112},
                 ;    {-0.680601,0.73265427},
                 ;    {-0.68954057,0.7242471},
                 ;    {-0.69837624,0.71573085},
                 ;    {-0.70710677,0.70710677},
                 ;    {-0.71573085,0.69837624},
                 ;    {-0.7242471,0.68954057},
                 ;    {-0.73265427,0.680601},
                 ;    {-0.74095112,0.67155898},
                 ;    {-0.74913639,0.6624158},
                 ;    {-0.75720882,0.65317285},
                 ;    {-0.76516724,0.64383155},
                 ;    {-0.77301043,0.63439327},
                 ;    {-0.78073722,0.62485951},
                 ;    {-0.78834641,0.61523157},
                 ;    {-0.79583693,0.60551107},
                 ;    {-0.80320752,0.59569931},
                 ;    {-0.81045717,0.58579785},
                 ;    {-0.81758481,0.57580817},
                 ;    {-0.82458931,0.56573182},
                 ;    {-0.8314696,0.55557024},
                 ;    {-0.83822471,0.54532498},
                 ;    {-0.84485358,0.53499764},
                 ;    {-0.8513552,0.52458966},
                 ;    {-0.8577286,0.51410276},
                 ;    {-0.86397284,0.50353837},
                 ;    {-0.87008697,0.4928982},
                 ;    {-0.87607008,0.48218378},
                 ;    {-0.88192129,0.47139674},
                 ;    {-0.88763964,0.46053872},
                 ;    {-0.8932243,0.44961134},
                 ;    {-0.89867449,0.43861625},
                 ;    {-0.90398932,0.42755508},
                 ;    {-0.909168,0.41642955},
                 ;    {-0.91420978,0.40524131},
                 ;    {-0.91911387,0.39399204},
                 ;    {-0.9238795,0.38268343},
                 ;    {-0.92850608,0.37131721},
                 ;    {-0.93299282,0.35989505},
                 ;    {-0.93733901,0.34841868},
                 ;    {-0.94154406,0.33688986},
                 ;    {-0.9456073,0.32531029},
                 ;    {-0.94952816,0.313681751},
                 ;    {-0.95330602,0.302005947},
                 ;    {-0.95694035,0.290284663},
                 ;    {-0.9604305,0.27851969},
                 ;    {-0.96377605,0.266712755},
                 ;    {-0.96697646,0.254865646},
                 ;    {-0.97003126,0.242980182},
                 ;    {-0.97293997,0.231058106},
                 ;    {-0.97570211,0.219101235},
                 ;    {-0.97831738,0.207111374},
                 ;    {-0.98078525,0.195090324},
                 ;    {-0.98310548,0.183039889},
                 ;    {-0.98527765,0.170961887},
                 ;    {-0.98730141,0.15885815},
                 ;    {-0.98917651,0.146730468},
                 ;    {-0.99090266,0.134580702},
                 ;    {-0.99247956,0.122410677},
                 ;    {-0.99390697,0.110222206},
                 ;    {-0.99518472,0.0980171412},
                 ;    {-0.99631262,0.0857973099},
                 ;    {-0.99729043,0.0735645667},
                 ;    {-0.9981181,0.061320737},
                 ;    {-0.99879545,0.0490676761},
                 ;    {-0.99932235,0.0368072242},
                 ;    {-0.99969882,0.02454122901},
                 ;    {-0.99992472,0.01227153838},
                 ;    {-1.0,0.0},
                 ;    {-0.99992472,-0.01227153838},
                 ;    {-0.99969882,-0.02454122901},
                 ;    {-0.99932235,-0.0368072242},
                 ;    {-0.99879545,-0.0490676761},
                 ;    {-0.9981181,-0.061320737},
                 ;    {-0.99729043,-0.0735645667},
                 ;    {-0.99631262,-0.0857973099},
                 ;    {-0.99518472,-0.0980171412},
                 ;    {-0.99390697,-0.110222206},
                 ;    {-0.99247956,-0.122410677},
                 ;    {-0.99090266,-0.134580702},
                 ;    {-0.98917651,-0.146730468},
                 ;    {-0.98730141,-0.15885815},
                 ;    {-0.98527765,-0.170961887},
                 ;    {-0.98310548,-0.183039889},
                 ;    {-0.98078525,-0.195090324},
                 ;    {-0.97831738,-0.207111374},
                 ;    {-0.97570211,-0.219101235},
                 ;    {-0.97293997,-0.231058106},
                 ;    {-0.97003126,-0.242980182},
                 ;    {-0.96697646,-0.254865646},
                 ;    {-0.96377605,-0.266712755},
                 ;    {-0.9604305,-0.27851969},
                 ;    {-0.95694035,-0.290284663},
                 ;    {-0.95330602,-0.302005947},
                 ;    {-0.94952816,-0.313681751},
                 ;    {-0.9456073,-0.32531029},
                 ;    {-0.94154406,-0.33688986},
                 ;    {-0.93733901,-0.34841868},
                 ;    {-0.93299282,-0.35989505},
                 ;    {-0.92850608,-0.37131721},
                 ;    {-0.9238795,-0.38268343},
                 ;    {-0.91911387,-0.39399204},
                 ;    {-0.91420978,-0.40524131},
                 ;    {-0.909168,-0.41642955},
                 ;    {-0.90398932,-0.42755508},
                 ;    {-0.89867449,-0.43861625},
                 ;    {-0.8932243,-0.44961134},
                 ;    {-0.88763964,-0.46053872},
                 ;    {-0.88192129,-0.47139674},
                 ;    {-0.87607008,-0.48218378},
                 ;    {-0.87008697,-0.4928982},
                 ;    {-0.86397284,-0.50353837},
                 ;    {-0.8577286,-0.51410276},
                 ;    {-0.8513552,-0.52458966},
                 ;    {-0.84485358,-0.53499764},
                 ;    {-0.83822471,-0.54532498},
                 ;    {-0.8314696,-0.55557024},
                 ;    {-0.82458931,-0.56573182},
                 ;    {-0.81758481,-0.57580817},
                 ;    {-0.81045717,-0.58579785},
                 ;    {-0.80320752,-0.59569931},
                 ;    {-0.79583693,-0.60551107},
                 ;    {-0.78834641,-0.61523157},
                 ;    {-0.78073722,-0.62485951},
                 ;    {-0.77301043,-0.63439327},
                 ;    {-0.76516724,-0.64383155},
                 ;    {-0.75720882,-0.65317285},
                 ;    {-0.74913639,-0.6624158},
                 ;    {-0.74095112,-0.67155898},
                 ;    {-0.73265427,-0.680601},
                 ;    {-0.7242471,-0.68954057},
                 ;    {-0.71573085,-0.69837624},
                 ;    {-0.70710677,-0.70710677},
                 ;    {-0.69837624,-0.71573085},
                 ;    {-0.68954057,-0.7242471},
                 ;    {-0.680601,-0.73265427},
                 ;    {-0.67155898,-0.74095112},
                 ;    {-0.6624158,-0.74913639},
                 ;    {-0.65317285,-0.75720882},
                 ;    {-0.64383155,-0.76516724},
                 ;    {-0.63439327,-0.77301043},
                 ;    {-0.62485951,-0.78073722},
                 ;    {-0.61523157,-0.78834641},
                 ;    {-0.60551107,-0.79583693},
                 ;    {-0.59569931,-0.80320752},
                 ;    {-0.58579785,-0.81045717},
                 ;    {-0.57580817,-0.81758481},
                 ;    {-0.56573182,-0.82458931},
                 ;    {-0.55557024,-0.8314696},
                 ;    {-0.54532498,-0.83822471},
                 ;    {-0.53499764,-0.84485358},
                 ;    {-0.52458966,-0.8513552},
                 ;    {-0.51410276,-0.8577286},
                 ;    {-0.50353837,-0.86397284},
                 ;    {-0.4928982,-0.87008697},
                 ;    {-0.48218378,-0.87607008},
                 ;    {-0.47139674,-0.88192129},
                 ;    {-0.46053872,-0.88763964},
                 ;    {-0.44961134,-0.8932243},
                 ;    {-0.43861625,-0.89867449},
                 ;    {-0.42755508,-0.90398932},
                 ;    {-0.41642955,-0.909168},
                 ;    {-0.40524131,-0.91420978},
                 ;    {-0.39399204,-0.91911387},
                 ;    {-0.38268343,-0.9238795},
                 ;    {-0.37131721,-0.92850608},
                 ;    {-0.35989505,-0.93299282},
                 ;    {-0.34841868,-0.93733901},
                 ;    {-0.33688986,-0.94154406},
                 ;    {-0.32531029,-0.9456073},
                 ;    {-0.313681751,-0.94952816},
                 ;    {-0.302005947,-0.95330602},
                 ;    {-0.290284663,-0.95694035},
                 ;    {-0.27851969,-0.9604305},
                 ;    {-0.266712755,-0.96377605},
                 ;    {-0.254865646,-0.96697646},
                 ;    {-0.242980182,-0.97003126},
                 ;    {-0.231058106,-0.97293997},
                 ;    {-0.219101235,-0.97570211},
                 ;    {-0.207111374,-0.97831738},
                 ;    {-0.195090324,-0.98078525},
                 ;    {-0.183039889,-0.98310548},
                 ;    {-0.170961887,-0.98527765},
                 ;    {-0.15885815,-0.98730141},
                 ;    {-0.146730468,-0.98917651},
                 ;    {-0.134580702,-0.99090266},
                 ;    {-0.122410677,-0.99247956},
                 ;    {-0.110222206,-0.99390697},
                 ;    {-0.0980171412,-0.99518472},
                 ;    {-0.0857973099,-0.99631262},
                 ;    {-0.0735645667,-0.99729043},
                 ;    {-0.061320737,-0.9981181},
                 ;    {-0.0490676761,-0.99879545},
                 ;    {-0.0368072242,-0.99932235},
                 ;    {-0.02454122901,-0.99969882},
                 ;    {-0.01227153838,-0.99992472},
                 ;    {0.0,-1.0},
                 ;    {0.01227153838,-0.99992472},
                 ;    {0.02454122901,-0.99969882},
                 ;    {0.0368072242,-0.99932235},
                 ;    {0.0490676761,-0.99879545},
                 ;    {0.061320737,-0.9981181},
                 ;    {0.0735645667,-0.99729043},
                 ;    {0.0857973099,-0.99631262},
                 ;    {0.0980171412,-0.99518472},
                 ;    {0.110222206,-0.99390697},
                 ;    {0.122410677,-0.99247956},
                 ;    {0.134580702,-0.99090266},
                 ;    {0.146730468,-0.98917651},
                 ;    {0.15885815,-0.98730141},
                 ;    {0.170961887,-0.98527765},
                 ;    {0.183039889,-0.98310548},
                 ;    {0.195090324,-0.98078525},
                 ;    {0.207111374,-0.97831738},
                 ;    {0.219101235,-0.97570211},
                 ;    {0.231058106,-0.97293997},
                 ;    {0.242980182,-0.97003126},
                 ;    {0.254865646,-0.96697646},
                 ;    {0.266712755,-0.96377605},
                 ;    {0.27851969,-0.9604305},
                 ;    {0.290284663,-0.95694035},
                 ;    {0.302005947,-0.95330602},
                 ;    {0.313681751,-0.94952816},
                 ;    {0.32531029,-0.9456073},
                 ;    {0.33688986,-0.94154406},
                 ;    {0.34841868,-0.93733901},
                 ;    {0.35989505,-0.93299282},
                 ;    {0.37131721,-0.92850608},
                 ;    {0.38268343,-0.9238795},
                 ;    {0.39399204,-0.91911387},
                 ;    {0.40524131,-0.91420978},
                 ;    {0.41642955,-0.909168},
                 ;    {0.42755508,-0.90398932},
                 ;    {0.43861625,-0.89867449},
                 ;    {0.44961134,-0.8932243},
                 ;    {0.46053872,-0.88763964},
                 ;    {0.47139674,-0.88192129},
                 ;    {0.48218378,-0.87607008},
                 ;    {0.4928982,-0.87008697},
                 ;    {0.50353837,-0.86397284},
                 ;    {0.51410276,-0.8577286},
                 ;    {0.52458966,-0.8513552},
                 ;    {0.53499764,-0.84485358},
                 ;    {0.54532498,-0.83822471},
                 ;    {0.55557024,-0.8314696},
                 ;    {0.56573182,-0.82458931},
                 ;    {0.57580817,-0.81758481},
                 ;    {0.58579785,-0.81045717},
                 ;    {0.59569931,-0.80320752},
                 ;    {0.60551107,-0.79583693},
                 ;    {0.61523157,-0.78834641},
                 ;    {0.62485951,-0.78073722},
                 ;    {0.63439327,-0.77301043},
                 ;    {0.64383155,-0.76516724},
                 ;    {0.65317285,-0.75720882},
                 ;    {0.6624158,-0.74913639},
                 ;    {0.67155898,-0.74095112},
                 ;    {0.680601,-0.73265427},
                 ;    {0.68954057,-0.7242471},
                 ;    {0.69837624,-0.71573085},
                 ;    {0.70710677,-0.70710677},
                 ;    {0.71573085,-0.69837624},
                 ;    {0.7242471,-0.68954057},
                 ;    {0.73265427,-0.680601},
                 ;    {0.74095112,-0.67155898},
                 ;    {0.74913639,-0.6624158},
                 ;    {0.75720882,-0.65317285},
                 ;    {0.76516724,-0.64383155},
                 ;    {0.77301043,-0.63439327},
                 ;    {0.78073722,-0.62485951},
                 ;    {0.78834641,-0.61523157},
                 ;    {0.79583693,-0.60551107},
                 ;    {0.80320752,-0.59569931},
                 ;    {0.81045717,-0.58579785},
                 ;    {0.81758481,-0.57580817},
                 ;    {0.82458931,-0.56573182},
                 ;    {0.8314696,-0.55557024},
                 ;    {0.83822471,-0.54532498},
                 ;    {0.84485358,-0.53499764},
                 ;    {0.8513552,-0.52458966},
                 ;    {0.8577286,-0.51410276},
                 ;    {0.86397284,-0.50353837},
                 ;    {0.87008697,-0.4928982},
                 ;    {0.87607008,-0.48218378},
                 ;    {0.88192129,-0.47139674},
                 ;    {0.88763964,-0.46053872},
                 ;    {0.8932243,-0.44961134},
                 ;    {0.89867449,-0.43861625},
                 ;    {0.90398932,-0.42755508},
                 ;    {0.909168,-0.41642955},
                 ;    {0.91420978,-0.40524131},
                 ;    {0.91911387,-0.39399204},
                 ;    {0.9238795,-0.38268343},
                 ;    {0.92850608,-0.37131721},
                 ;    {0.93299282,-0.35989505},
                 ;    {0.93733901,-0.34841868},
                 ;    {0.94154406,-0.33688986},
                 ;    {0.9456073,-0.32531029},
                 ;    {0.94952816,-0.313681751},
                 ;    {0.95330602,-0.302005947},
                 ;    {0.95694035,-0.290284663},
                 ;    {0.9604305,-0.27851969},
                 ;    {0.96377605,-0.266712755},
                 ;    {0.96697646,-0.254865646},
                 ;    {0.97003126,-0.242980182},
                 ;    {0.97293997,-0.231058106},
                 ;    {0.97570211,-0.219101235},
                 ;    {0.97831738,-0.207111374},
                 ;    {0.98078525,-0.195090324},
                 ;    {0.98310548,-0.183039889},
                 ;    {0.98527765,-0.170961887},
                 ;    {0.98730141,-0.15885815},
                 ;    {0.98917651,-0.146730468},
                 ;    {0.99090266,-0.134580702},
                 ;    {0.99247956,-0.122410677},
                 ;    {0.99390697,-0.110222206},
                 ;    {0.99518472,-0.0980171412},
                 ;    {0.99631262,-0.0857973099},
                 ;    {0.99729043,-0.0735645667},
                 ;    {0.9981181,-0.061320737},
                 ;    {0.99879545,-0.0490676761},
                 ;    {0.99932235,-0.0368072242},
                 ;    {0.99969882,-0.02454122901},
                 ;    {0.99992472,-0.01227153838}
                 ;};
                 ;
                 ;inline void mul_Wi (complex *x, unsigned int i)
                 ; 0000 0A9B {
                 _mul_Wi:
                 ; 0000 0A9C     complex temp;
                 ; 0000 0A9D     temp.real = W[i].real;
0015b1 93ba      	ST   -Y,R27
0015b2 93aa      	ST   -Y,R26
0015b3 9728      	SBIW R28,8
                 ;	*x -> Y+10
                 ;	i -> Y+8
                 ;	temp -> Y+0
0015b4 85e8      	LDD  R30,Y+8
0015b5 85f9      	LDD  R31,Y+8+1
0015b6 940e 20b1 	CALL __LSLW3
0015b8 51ee      	SUBI R30,LOW(-_W*2)
0015b9 4ffd      	SBCI R31,HIGH(-_W*2)
0015ba 940e 2180 	CALL __GETD1PF
0015bc 940e 2190 	CALL __PUTD1S0
                 ; 0000 0A9E     temp.imag = W[i].imag;
0015be 85e8      	LDD  R30,Y+8
0015bf 85f9      	LDD  R31,Y+8+1
0015c0 940e 20b1 	CALL __LSLW3
0015c2 51ee      	SUBI R30,LOW(-_W*2)
0015c3 4ffd      	SBCI R31,HIGH(-_W*2)
0015c4 9634      	ADIW R30,4
0015c5 940e 2180 	CALL __GETD1PF
                +
0015c7 83ec     +STD Y + 4 , R30
0015c8 83fd     +STD Y + 4 + 1 , R31
0015c9 836e     +STD Y + 4 + 2 , R22
0015ca 837f     +STD Y + 4 + 3 , R23
                 	__PUTD1S 4
                 ; 0000 0A9F     mul(x,temp);
0015cb 85ea      	LDD  R30,Y+10
0015cc 85fb      	LDD  R31,Y+10+1
0015cd 93fa      	ST   -Y,R31
0015ce 93ea      	ST   -Y,R30
0015cf 01fe      	MOVW R30,R28
0015d0 9632      	ADIW R30,2
0015d1 e0a8      	LDI  R26,8
0015d2 940e 21a4 	CALL __PUTPARL
0015d4 df73      	RCALL _mul
                 ; 0000 0AA0     return;
0015d5 962c      	ADIW R28,12
0015d6 9508      	RET
                 ; 0000 0AA1 }
                 ;
                 ;inline void butterfly (complex *x0, complex *x1, unsigned int i)
                 ; 0000 0AA4 {
                 _butterfly:
                 ; 0000 0AA5 	complex temp;
                 ; 0000 0AA6 	mul_Wi(x1,i);
0015d7 93ba      	ST   -Y,R27
0015d8 93aa      	ST   -Y,R26
0015d9 9728      	SBIW R28,8
                 ;	*x0 -> Y+12
                 ;	*x1 -> Y+10
                 ;	i -> Y+8
                 ;	temp -> Y+0
0015da 85ea      	LDD  R30,Y+10
0015db 85fb      	LDD  R31,Y+10+1
0015dc 93fa      	ST   -Y,R31
0015dd 93ea      	ST   -Y,R30
0015de 85aa      	LDD  R26,Y+10
0015df 85bb      	LDD  R27,Y+10+1
0015e0 dfd0      	RCALL _mul_Wi
                 ; 0000 0AA7 	temp = *x0;
0015e1 85ec      	LDD  R30,Y+12
0015e2 85fd      	LDD  R31,Y+12+1
0015e3 01de      	MOVW R26,R28
0015e4 e088      	LDI  R24,8
0015e5 940e 21b9 	CALL __COPYMML
                 ; 0000 0AA8 	add(x0,*x1);
0015e7 85ec      	LDD  R30,Y+12
0015e8 85fd      	LDD  R31,Y+12+1
0015e9 93fa      	ST   -Y,R31
0015ea 93ea      	ST   -Y,R30
0015eb 85ec      	LDD  R30,Y+12
0015ec 85fd      	LDD  R31,Y+12+1
0015ed e0a8      	LDI  R26,8
0015ee 940e 21a4 	CALL __PUTPARL
0015f0 df35      	RCALL _add
                 ; 0000 0AA9 	neg(x1);
0015f1 85aa      	LDD  R26,Y+10
0015f2 85bb      	LDD  R27,Y+10+1
0015f3 dfa5      	RCALL _neg
                 ; 0000 0AAA 	add(x1,temp);
0015f4 85ea      	LDD  R30,Y+10
0015f5 85fb      	LDD  R31,Y+10+1
0015f6 93fa      	ST   -Y,R31
0015f7 93ea      	ST   -Y,R30
0015f8 01fe      	MOVW R30,R28
0015f9 9632      	ADIW R30,2
0015fa e0a8      	LDI  R26,8
0015fb 940e 21a4 	CALL __PUTPARL
0015fd df28      	RCALL _add
                 ; 0000 0AAB 	return;
                 _0x20C000D:
0015fe 962e      	ADIW R28,14
0015ff 9508      	RET
                 ; 0000 0AAC }
                 ;
                 ;inline void fft (void)
                 ; 0000 0AAF {
                 _fft:
                 ; 0000 0AB0 	unsigned int i, j, x1i,x2i,index;
                 ; 0000 0AB1 	for (i = 0; i < radix; i++)
001600 9724      	SBIW R28,4
001601 940e 21d7 	CALL __SAVELOCR6
                 ;	i -> R16,R17
                 ;	j -> R18,R19
                 ;	x1i -> R20,R21
                 ;	x2i -> Y+8
                 ;	index -> Y+6
                +
001603 e000     +LDI R16 , LOW ( 0 )
001604 e010     +LDI R17 , HIGH ( 0 )
                 	__GETWRN 16,17,0
                 _0x76:
                +
001605 3009     +CPI R16 , LOW ( 9 )
001606 e0e0     +LDI R30 , HIGH ( 9 )
001607 071e     +CPC R17 , R30
                 	__CPWRN 16,17,9
001608 f010      	BRLO PC+3
001609 940c 1659 	JMP _0x77
                 ; 0000 0AB2 		for (j = 0; j < (1 << (radix - 1)); j++)
                +
00160b e020     +LDI R18 , LOW ( 0 )
00160c e030     +LDI R19 , HIGH ( 0 )
                 	__GETWRN 18,19,0
                 _0x79:
                +
00160d 3020     +CPI R18 , LOW ( 256 )
00160e e0e1     +LDI R30 , HIGH ( 256 )
00160f 073e     +CPC R19 , R30
                 	__CPWRN 18,19,256
001610 f010      	BRLO PC+3
001611 940c 1656 	JMP _0x7A
                 ; 0000 0AB3 		{
                 ; 0000 0AB4 			x1i = (((((unsigned int)(1)) << i) - 1) & j) | ((~((((unsigned int)(1)) << (i + 1)) - 1)) & (j << 1));
001613 2fe0      	MOV  R30,R16
001614 e0a1      	LDI  R26,LOW(1)
001615 e0b0      	LDI  R27,HIGH(1)
001616 940e 20a8 	CALL __LSLW12
001618 9731      	SBIW R30,1
001619 23e2      	AND  R30,R18
00161a 23f3      	AND  R31,R19
00161b 01bf      	MOVW R22,R30
00161c 01f8      	MOVW R30,R16
00161d 9631      	ADIW R30,1
00161e 940e 20a8 	CALL __LSLW12
001620 9731      	SBIW R30,1
001621 95e0      	COM  R30
001622 95f0      	COM  R31
001623 01df      	MOVW R26,R30
001624 01f9      	MOVW R30,R18
001625 0fee      	LSL  R30
001626 1fff      	ROL  R31
001627 23ea      	AND  R30,R26
001628 23fb      	AND  R31,R27
001629 2be6      	OR   R30,R22
00162a 2bf7      	OR   R31,R23
00162b 01af      	MOVW R20,R30
                 ; 0000 0AB5 			x2i = x1i | (((unsigned int)(1)) << i);
00162c 2fe0      	MOV  R30,R16
00162d e0a1      	LDI  R26,LOW(1)
00162e e0b0      	LDI  R27,HIGH(1)
00162f 940e 20a8 	CALL __LSLW12
001631 2be4      	OR   R30,R20
001632 2bf5      	OR   R31,R21
001633 87e8      	STD  Y+8,R30
001634 87f9      	STD  Y+8+1,R31
                 ; 0000 0AB6 			index = (j*(1 << ((radix - 1) - i))) & ((fft_N >> 1) - 1);
001635 e0e8      	LDI  R30,LOW(8)
001636 e0f0      	LDI  R31,HIGH(8)
001637 1be0      	SUB  R30,R16
001638 0bf1      	SBC  R31,R17
001639 940e 20a8 	CALL __LSLW12
00163b 01d9      	MOVW R26,R18
00163c 940e 20cb 	CALL __MULW12U
00163e 70f0      	ANDI R31,HIGH(0xFF)
00163f 83ee      	STD  Y+6,R30
001640 83ff      	STD  Y+6+1,R31
                 ; 0000 0AB7 			butterfly(&(fft_adc.fft_results[x1i]),&(fft_adc.fft_results[x2i]),index);
001641 01fa      	MOVW R30,R20
001642 940e 20b1 	CALL __LSLW3
001644 50e0      	SUBI R30,LOW(-_fft_adc)
001645 4df8      	SBCI R31,HIGH(-_fft_adc)
001646 93fa      	ST   -Y,R31
001647 93ea      	ST   -Y,R30
001648 85ea      	LDD  R30,Y+10
001649 85fb      	LDD  R31,Y+10+1
00164a 940e 20b1 	CALL __LSLW3
00164c 50e0      	SUBI R30,LOW(-_fft_adc)
00164d 4df8      	SBCI R31,HIGH(-_fft_adc)
00164e 93fa      	ST   -Y,R31
00164f 93ea      	ST   -Y,R30
001650 85aa      	LDD  R26,Y+10
001651 85bb      	LDD  R27,Y+10+1
001652 df84      	RCALL _butterfly
                 ; 0000 0AB8 		}
                +
001653 5f2f     +SUBI R18 , LOW ( - 1 )
001654 4f3f     +SBCI R19 , HIGH ( - 1 )
                 	__ADDWRN 18,19,1
001655 cfb7      	RJMP _0x79
                 _0x7A:
                +
001656 5f0f     +SUBI R16 , LOW ( - 1 )
001657 4f1f     +SBCI R17 , HIGH ( - 1 )
                 	__ADDWRN 16,17,1
001658 cfac      	RJMP _0x76
                 _0x77:
                 ; 0000 0AB9 }
001659 940e 21de 	CALL __LOADLOCR6
00165b 940c 1cd4 	JMP  _0x20C0005
                 ;
                 ;#pragma warn-
                 ;unsigned int anagram (unsigned int x)
                 ; 0000 0ABD {
                 _anagram:
                 ; 0000 0ABE #asm
00165d 93ba      	ST   -Y,R27
00165e 93aa      	ST   -Y,R26
                 ;	x -> Y+0
                 ; 0000 0ABF 	push r26
00165f 93af      	push r26
                 ; 0000 0AC0 	push r27
001660 93bf      	push r27
                 ; 0000 0AC1 	push r28
001661 93cf      	push r28
                 ; 0000 0AC2 	ld r26,y
001662 81a8      	ld r26,y
                 ; 0000 0AC3 	ldd r27,y+1
001663 81b9      	ldd r27,y+1
                 ; 0000 0AC4 	clr r30
001664 27ee      	clr r30
                 ; 0000 0AC5 	clr r31
001665 27ff      	clr r31
                 ; 0000 0AC6 	ldi r28,LOW(9)
001666 e0c9      	ldi r28,LOW(9)
                 ; 0000 0AC7 anagram_loop:
                 anagram_loop:
                 ; 0000 0AC8 	ror r27
001667 95b7      	ror r27
                 ; 0000 0AC9 	ror r26
001668 95a7      	ror r26
                 ; 0000 0ACA 	rol r30
001669 1fee      	rol r30
                 ; 0000 0ACB 	rol r31
00166a 1fff      	rol r31
                 ; 0000 0ACC 	dec r28
00166b 95ca      	dec r28
                 ; 0000 0ACD 	brne anagram_loop
00166c f7d1      	brne anagram_loop
                 ; 0000 0ACE 	pop r28
00166d 91cf      	pop r28
                 ; 0000 0ACF 	pop r27
00166e 91bf      	pop r27
                 ; 0000 0AD0 	pop r26
00166f 91af      	pop r26
                 ; 0000 0AD1 #endasm
                 ; 0000 0AD2 }
001670 c4cf      	RJMP _0x20C0008
                 ;#pragma warn+
                 ;
                 ;inline void rearrange_adc_data (void)
                 ; 0000 0AD6 {
                 _rearrange_adc_data:
                 ; 0000 0AD7     unsigned int i;
                 ; 0000 0AD8     for (i = 0; i < fft_N; i++)
001671 931a      	ST   -Y,R17
001672 930a      	ST   -Y,R16
                 ;	i -> R16,R17
                +
001673 e000     +LDI R16 , LOW ( 0 )
001674 e010     +LDI R17 , HIGH ( 0 )
                 	__GETWRN 16,17,0
                 _0x7C:
                +
001675 3000     +CPI R16 , LOW ( 512 )
001676 e0e2     +LDI R30 , HIGH ( 512 )
001677 071e     +CPC R17 , R30
                 	__CPWRN 16,17,512
001678 f518      	BRSH _0x7D
                 ; 0000 0AD9         fft_adc.adc_data[i] = (((unsigned int)(fft_adc.adc_bytes[2*fft_N + anagram(i)])) & 0x00FF)
                 ; 0000 0ADA             | ((((unsigned int)(fft_adc.adc_bytes[3*fft_N + anagram(i)])) << 8) & 0xFF00);
001679 01f8      	MOVW R30,R16
00167a e0a0      	LDI  R26,LOW(_fft_adc)
00167b e2b8      	LDI  R27,HIGH(_fft_adc)
00167c 0fee      	LSL  R30
00167d 1fff      	ROL  R31
00167e 0fea      	ADD  R30,R26
00167f 1ffb      	ADC  R31,R27
001680 93ff      	PUSH R31
001681 93ef      	PUSH R30
001682 01d8      	MOVW R26,R16
001683 dfd9      	RCALL _anagram
                +
001684 50e0     +SUBI R30 , LOW ( - _fft_adc - ( 1024 ) )
001685 4df4     +SBCI R31 , HIGH ( - _fft_adc - ( 1024 ) )
                 	__ADDW1MN _fft_adc,1024
001686 81e0      	LD   R30,Z
001687 e0f0      	LDI  R31,0
001688 70f0      	ANDI R31,HIGH(0xFF)
001689 93ff      	PUSH R31
00168a 93ef      	PUSH R30
00168b 01d8      	MOVW R26,R16
00168c dfd0      	RCALL _anagram
                +
00168d 50e0     +SUBI R30 , LOW ( - _fft_adc - ( 1536 ) )
00168e 4df2     +SBCI R31 , HIGH ( - _fft_adc - ( 1536 ) )
                 	__ADDW1MN _fft_adc,1536
00168f 81f0      	LD   R31,Z
001690 e0e0      	LDI  R30,LOW(0)
001691 91af      	POP  R26
001692 91bf      	POP  R27
001693 2bea      	OR   R30,R26
001694 2bfb      	OR   R31,R27
001695 91af      	POP  R26
001696 91bf      	POP  R27
001697 93ed      	ST   X+,R30
001698 93fc      	ST   X,R31
                +
001699 5f0f     +SUBI R16 , LOW ( - 1 )
00169a 4f1f     +SBCI R17 , HIGH ( - 1 )
                 	__ADDWRN 16,17,1
00169b cfd9      	RJMP _0x7C
                 _0x7D:
                 ; 0000 0ADB }
00169c c0fa      	RJMP _0x20C000C
                 ;
                 ;inline void cast_to_complex (void)
                 ; 0000 0ADE {
                 _cast_to_complex:
                 ; 0000 0ADF 	signed int i;
                 ; 0000 0AE0 	for (i = fft_N - 1; i >= 0; i--)
00169d 931a      	ST   -Y,R17
00169e 930a      	ST   -Y,R16
                 ;	i -> R16,R17
                +
00169f ef0f     +LDI R16 , LOW ( 511 )
0016a0 e011     +LDI R17 , HIGH ( 511 )
                 	__GETWRN 16,17,511
                 _0x7F:
0016a1 2311      	TST  R17
0016a2 f412      	BRPL PC+3
0016a3 940c 16f7 	JMP _0x80
                 ; 0000 0AE1 	{
                 ; 0000 0AE2 		fft_adc.fft_results[i].real = ((float)(fft_adc.adc_data[i] - adca_offset))*
                 ; 0000 0AE3             Vref/2048.0/((float)(((unsigned int)(1)) << gain_index))/fft_N;
0016a5 01f8      	MOVW R30,R16
0016a6 940e 20b1 	CALL __LSLW3
0016a8 50e0      	SUBI R30,LOW(-_fft_adc)
0016a9 4df8      	SBCI R31,HIGH(-_fft_adc)
0016aa 93ff      	PUSH R31
0016ab 93ef      	PUSH R30
0016ac 01f8      	MOVW R30,R16
0016ad e0a0      	LDI  R26,LOW(_fft_adc)
0016ae e2b8      	LDI  R27,HIGH(_fft_adc)
0016af 0fee      	LSL  R30
0016b0 1fff      	ROL  R31
0016b1 0fae      	ADD  R26,R30
0016b2 1fbf      	ADC  R27,R31
0016b3 940e 216d 	CALL __GETW1P
0016b5 19e4      	SUB  R30,R4
0016b6 09f5      	SBC  R31,R5
0016b7 940e 20c6 	CALL __CWD1
0016b9 940e 1f55 	CALL __CDF1
                +
0016bb e0a0     +LDI R26 , LOW ( 0x40000000 )
0016bc e0b0     +LDI R27 , HIGH ( 0x40000000 )
0016bd e080     +LDI R24 , BYTE3 ( 0x40000000 )
0016be e490     +LDI R25 , BYTE4 ( 0x40000000 )
                 	__GETD2N 0x40000000
0016bf 940e 1fdf 	CALL __MULF12
0016c1 01df      	MOVW R26,R30
0016c2 01cb      	MOVW R24,R22
                +
0016c3 e0e0     +LDI R30 , LOW ( 0x45000000 )
0016c4 e0f0     +LDI R31 , HIGH ( 0x45000000 )
0016c5 e060     +LDI R22 , BYTE3 ( 0x45000000 )
0016c6 e475     +LDI R23 , BYTE4 ( 0x45000000 )
                 	__GETD1N 0x45000000
0016c7 940e 202d 	CALL __DIVF21
0016c9 937f      	PUSH R23
0016ca 936f      	PUSH R22
0016cb 93ff      	PUSH R31
0016cc 93ef      	PUSH R30
0016cd 91e0 3a1f 	LDS  R30,_gain_index
0016cf e0a1      	LDI  R26,LOW(1)
0016d0 e0b0      	LDI  R27,HIGH(1)
0016d1 940e 20a8 	CALL __LSLW12
0016d3 2766      	CLR  R22
0016d4 2777      	CLR  R23
0016d5 940e 1f55 	CALL __CDF1
0016d7 91af      	POP  R26
0016d8 91bf      	POP  R27
0016d9 918f      	POP  R24
0016da 919f      	POP  R25
0016db 940e 202d 	CALL __DIVF21
0016dd 01df      	MOVW R26,R30
0016de 01cb      	MOVW R24,R22
                +
0016df e0e0     +LDI R30 , LOW ( 0x44000000 )
0016e0 e0f0     +LDI R31 , HIGH ( 0x44000000 )
0016e1 e060     +LDI R22 , BYTE3 ( 0x44000000 )
0016e2 e474     +LDI R23 , BYTE4 ( 0x44000000 )
                 	__GETD1N 0x44000000
0016e3 940e 202d 	CALL __DIVF21
0016e5 91af      	POP  R26
0016e6 91bf      	POP  R27
0016e7 940e 2177 	CALL __PUTDP1
                 ; 0000 0AE4 		fft_adc.fft_results[i].imag = 0.0;
0016e9 01f8      	MOVW R30,R16
0016ea 940e 20b1 	CALL __LSLW3
                +
0016ec 5fec     +SUBI R30 , LOW ( - _fft_adc - ( 4 ) )
0016ed 4df7     +SBCI R31 , HIGH ( - _fft_adc - ( 4 ) )
                 	__ADDW1MN _fft_adc,4
                +
0016ee e0a0     +LDI R26 , LOW ( 0x0 )
0016ef e0b0     +LDI R27 , HIGH ( 0x0 )
0016f0 e080     +LDI R24 , BYTE3 ( 0x0 )
0016f1 e090     +LDI R25 , BYTE4 ( 0x0 )
                 	__GETD2N 0x0
0016f2 940e 2195 	CALL __PUTDZ20
                 ; 0000 0AE5 	}
                +
0016f4 5001     +SUBI R16 , LOW ( 1 )
0016f5 4010     +SBCI R17 , HIGH ( 1 )
                 	__SUBWRN 16,17,1
0016f6 cfaa      	RJMP _0x7F
                 _0x80:
                 ; 0000 0AE6 }
0016f7 c09f      	RJMP _0x20C000C
                 ;
                 ;inline void abs_fft (void)
                 ; 0000 0AE9 {
                 _abs_fft:
                 ; 0000 0AEA     unsigned int i;
                 ; 0000 0AEB     for (i = 0; i < (fft_N >> 1); i++)
0016f8 931a      	ST   -Y,R17
0016f9 930a      	ST   -Y,R16
                 ;	i -> R16,R17
                +
0016fa e000     +LDI R16 , LOW ( 0 )
0016fb e010     +LDI R17 , HIGH ( 0 )
                 	__GETWRN 16,17,0
                 _0x82:
                +
0016fc 3000     +CPI R16 , LOW ( 256 )
0016fd e0e1     +LDI R30 , HIGH ( 256 )
0016fe 071e     +CPC R17 , R30
                 	__CPWRN 16,17,256
0016ff f010      	BRLO PC+3
001700 940c 1761 	JMP _0x83
                 ; 0000 0AEC         fft_adc.fft_abs[i] =
                 ; 0000 0AED             (*units[current_unit].abs_fft_fcn)(fft_adc.fft_results[i].real*fft_adc.fft_results[i].real +
                 ; 0000 0AEE             fft_adc.fft_results[i].imag*fft_adc.fft_results[i].imag);
001702 01f8      	MOVW R30,R16
001703 e0a0      	LDI  R26,LOW(_fft_adc)
001704 e2b8      	LDI  R27,HIGH(_fft_adc)
001705 940e 20b3 	CALL __LSLW2
001707 0fea      	ADD  R30,R26
001708 1ffb      	ADC  R31,R27
001709 93ff      	PUSH R31
00170a 93ef      	PUSH R30
00170b 91e0 3a1e 	LDS  R30,_current_unit
00170d e0af      	LDI  R26,LOW(15)
00170e 9fea      	MUL  R30,R26
00170f 01f0      	MOVW R30,R0
001710 5fec      	SUBI R30,LOW(-_units*2)
001711 4ffd      	SBCI R31,HIGH(-_units*2)
001712 963d      	ADIW R30,13
001713 940e 217c 	CALL __GETW1PF
001715 93ff      	PUSH R31
001716 93ef      	PUSH R30
001717 01f8      	MOVW R30,R16
001718 940e 20b1 	CALL __LSLW3
00171a 50e0      	SUBI R30,LOW(-_fft_adc)
00171b 4df8      	SBCI R31,HIGH(-_fft_adc)
00171c 01df      	MOVW R26,R30
00171d 940e 2171 	CALL __GETD1P
00171f 937f      	PUSH R23
001720 936f      	PUSH R22
001721 93ff      	PUSH R31
001722 93ef      	PUSH R30
001723 01f8      	MOVW R30,R16
001724 940e 20b1 	CALL __LSLW3
001726 50e0      	SUBI R30,LOW(-_fft_adc)
001727 4df8      	SBCI R31,HIGH(-_fft_adc)
001728 01df      	MOVW R26,R30
001729 940e 2171 	CALL __GETD1P
00172b 91af      	POP  R26
00172c 91bf      	POP  R27
00172d 918f      	POP  R24
00172e 919f      	POP  R25
00172f 940e 1fdf 	CALL __MULF12
001731 937f      	PUSH R23
001732 936f      	PUSH R22
001733 93ff      	PUSH R31
001734 93ef      	PUSH R30
001735 01f8      	MOVW R30,R16
001736 940e 20b1 	CALL __LSLW3
                +
001738 5fec     +SUBI R30 , LOW ( - _fft_adc - ( 4 ) )
001739 4df7     +SBCI R31 , HIGH ( - _fft_adc - ( 4 ) )
                 	__ADDW1MN _fft_adc,4
00173a 01df      	MOVW R26,R30
00173b 940e 2171 	CALL __GETD1P
00173d 937f      	PUSH R23
00173e 936f      	PUSH R22
00173f 93ff      	PUSH R31
001740 93ef      	PUSH R30
001741 01f8      	MOVW R30,R16
001742 940e 20b1 	CALL __LSLW3
                +
001744 5fec     +SUBI R30 , LOW ( - _fft_adc - ( 4 ) )
001745 4df7     +SBCI R31 , HIGH ( - _fft_adc - ( 4 ) )
                 	__ADDW1MN _fft_adc,4
001746 01df      	MOVW R26,R30
001747 940e 2171 	CALL __GETD1P
001749 91af      	POP  R26
00174a 91bf      	POP  R27
00174b 918f      	POP  R24
00174c 919f      	POP  R25
00174d 940e 1fdf 	CALL __MULF12
00174f 91af      	POP  R26
001750 91bf      	POP  R27
001751 918f      	POP  R24
001752 919f      	POP  R25
001753 940e 1f8f 	CALL __ADDF12
001755 01df      	MOVW R26,R30
001756 01cb      	MOVW R24,R22
001757 91ef      	POP  R30
001758 91ff      	POP  R31
001759 9509      	ICALL
00175a 91af      	POP  R26
00175b 91bf      	POP  R27
00175c 940e 2177 	CALL __PUTDP1
                +
00175e 5f0f     +SUBI R16 , LOW ( - 1 )
00175f 4f1f     +SBCI R17 , HIGH ( - 1 )
                 	__ADDWRN 16,17,1
001760 cf9b      	RJMP _0x82
                 _0x83:
                 ; 0000 0AEF }
001761 c035      	RJMP _0x20C000C
                 ;
                 ;inline void convert_for_dac (void)
                 ; 0000 0AF2 {
                 _convert_for_dac:
                 ; 0000 0AF3     unsigned int i;
                 ; 0000 0AF4     for (i = 0; i < (fft_N >> 1); i++)
001762 931a      	ST   -Y,R17
001763 930a      	ST   -Y,R16
                 ;	i -> R16,R17
                +
001764 e000     +LDI R16 , LOW ( 0 )
001765 e010     +LDI R17 , HIGH ( 0 )
                 	__GETWRN 16,17,0
                 _0x85:
                +
001766 3000     +CPI R16 , LOW ( 256 )
001767 e0e1     +LDI R30 , HIGH ( 256 )
001768 071e     +CPC R17 , R30
                 	__CPWRN 16,17,256
001769 f568      	BRSH _0x86
                 ; 0000 0AF5         fft_adc.fft_abs[i] = abs_to_dac_coeff1*fft_adc.fft_abs[i] + abs_to_dac_coeff0;
00176a 01f8      	MOVW R30,R16
00176b e0a0      	LDI  R26,LOW(_fft_adc)
00176c e2b8      	LDI  R27,HIGH(_fft_adc)
00176d 940e 20b3 	CALL __LSLW2
00176f 0fea      	ADD  R30,R26
001770 1ffb      	ADC  R31,R27
001771 93ff      	PUSH R31
001772 93ef      	PUSH R30
001773 01f8      	MOVW R30,R16
001774 e0a0      	LDI  R26,LOW(_fft_adc)
001775 e2b8      	LDI  R27,HIGH(_fft_adc)
001776 940e 20b3 	CALL __LSLW2
001778 0fae      	ADD  R26,R30
001779 1fbf      	ADC  R27,R31
00177a 940e 2171 	CALL __GETD1P
00177c 91a0 3a11 	LDS  R26,_abs_to_dac_coeff1
00177e 91b0 3a12 	LDS  R27,_abs_to_dac_coeff1+1
001780 9180 3a13 	LDS  R24,_abs_to_dac_coeff1+2
001782 9190 3a14 	LDS  R25,_abs_to_dac_coeff1+3
001784 940e 1fdf 	CALL __MULF12
001786 91a0 3a0d 	LDS  R26,_abs_to_dac_coeff0
001788 91b0 3a0e 	LDS  R27,_abs_to_dac_coeff0+1
00178a 9180 3a0f 	LDS  R24,_abs_to_dac_coeff0+2
00178c 9190 3a10 	LDS  R25,_abs_to_dac_coeff0+3
00178e 940e 1f8f 	CALL __ADDF12
001790 91af      	POP  R26
001791 91bf      	POP  R27
001792 940e 2177 	CALL __PUTDP1
                +
001794 5f0f     +SUBI R16 , LOW ( - 1 )
001795 4f1f     +SBCI R17 , HIGH ( - 1 )
                 	__ADDWRN 16,17,1
001796 cfcf      	RJMP _0x85
                 _0x86:
                 ; 0000 0AF6 }
                 _0x20C000C:
001797 9109      	LD   R16,Y+
001798 9119      	LD   R17,Y+
001799 9508      	RET
                 ;
                 ;signed int nearest_si (float input)
                 ; 0000 0AF9 {
                 _nearest_si:
                 ; 0000 0AFA     if (input >= 32766.5)
00179a 940e 219f 	CALL __PUTPARD2
                 ;	input -> Y+0
00179c 940e 218b 	CALL __GETD2S0
                +
00179e e0e0     +LDI R30 , LOW ( 0x46FFFD00 )
00179f effd     +LDI R31 , HIGH ( 0x46FFFD00 )
0017a0 ef6f     +LDI R22 , BYTE3 ( 0x46FFFD00 )
0017a1 e476     +LDI R23 , BYTE4 ( 0x46FFFD00 )
                 	__GETD1N 0x46FFFD00
0017a2 940e 2072 	CALL __CMPF12
0017a4 f020      	BRLO _0x87
                 ; 0000 0AFB         return 32767;
0017a5 efef      	LDI  R30,LOW(32767)
0017a6 e7ff      	LDI  R31,HIGH(32767)
0017a7 940c 1ceb 	JMP  _0x20C0003
                 ; 0000 0AFC     if (input < -32767.5)
                 _0x87:
0017a9 940e 218b 	CALL __GETD2S0
                +
0017ab e0e0     +LDI R30 , LOW ( 0xC6FFFF00 )
0017ac efff     +LDI R31 , HIGH ( 0xC6FFFF00 )
0017ad ef6f     +LDI R22 , BYTE3 ( 0xC6FFFF00 )
0017ae ec76     +LDI R23 , BYTE4 ( 0xC6FFFF00 )
                 	__GETD1N 0xC6FFFF00
0017af 940e 2072 	CALL __CMPF12
0017b1 f420      	BRSH _0x88
                 ; 0000 0AFD         return -32768;
0017b2 e0e0      	LDI  R30,LOW(32768)
0017b3 e8f0      	LDI  R31,HIGH(32768)
0017b4 940c 1ceb 	JMP  _0x20C0003
                 ; 0000 0AFE     if (input >= 0)
                 _0x88:
0017b6 81ab      	LDD  R26,Y+3
0017b7 23aa      	TST  R26
0017b8 f102      	BRMI _0x89
                 ; 0000 0AFF     {
                 ; 0000 0B00         if ((input - floor(input)) < 0.5)
0017b9 940e 218b 	CALL __GETD2S0
0017bb 940e 1c16 	CALL _floor
0017bd 940e 218b 	CALL __GETD2S0
0017bf 940e 21ac 	CALL __SWAPD12
0017c1 940e 1f88 	CALL __SUBF12
0017c3 01df      	MOVW R26,R30
0017c4 01cb      	MOVW R24,R22
                +
0017c5 e0e0     +LDI R30 , LOW ( 0x3F000000 )
0017c6 e0f0     +LDI R31 , HIGH ( 0x3F000000 )
0017c7 e060     +LDI R22 , BYTE3 ( 0x3F000000 )
0017c8 e37f     +LDI R23 , BYTE4 ( 0x3F000000 )
                 	__GETD1N 0x3F000000
0017c9 940e 2072 	CALL __CMPF12
0017cb f430      	BRSH _0x8A
                 ; 0000 0B01             return ((signed int)(input));
0017cc 940e 2186 	CALL __GETD1S0
0017ce 940e 1f1e 	CALL __CFD1
0017d0 940c 1ceb 	JMP  _0x20C0003
                 ; 0000 0B02         return ((signed int)(input)) + 1;
                 _0x8A:
0017d2 940e 2186 	CALL __GETD1S0
0017d4 940e 1f1e 	CALL __CFD1
0017d6 9631      	ADIW R30,1
0017d7 940c 1ceb 	JMP  _0x20C0003
                 ; 0000 0B03     }
                 ; 0000 0B04     if ((input - floor(input)) < 0.5)
                 _0x89:
0017d9 940e 218b 	CALL __GETD2S0
0017db 940e 1c16 	CALL _floor
0017dd 940e 218b 	CALL __GETD2S0
0017df 940e 21ac 	CALL __SWAPD12
0017e1 940e 1f88 	CALL __SUBF12
0017e3 01df      	MOVW R26,R30
0017e4 01cb      	MOVW R24,R22
                +
0017e5 e0e0     +LDI R30 , LOW ( 0x3F000000 )
0017e6 e0f0     +LDI R31 , HIGH ( 0x3F000000 )
0017e7 e060     +LDI R22 , BYTE3 ( 0x3F000000 )
0017e8 e37f     +LDI R23 , BYTE4 ( 0x3F000000 )
                 	__GETD1N 0x3F000000
0017e9 940e 2072 	CALL __CMPF12
0017eb f438      	BRSH _0x8B
                 ; 0000 0B05         return ((signed int)(input)) - 1;
0017ec 940e 2186 	CALL __GETD1S0
0017ee 940e 1f1e 	CALL __CFD1
0017f0 9731      	SBIW R30,1
0017f1 940c 1ceb 	JMP  _0x20C0003
                 ; 0000 0B06     return ((signed int)(input));
                 _0x8B:
0017f3 940e 2186 	CALL __GETD1S0
0017f5 940e 1f1e 	CALL __CFD1
0017f7 940c 1ceb 	JMP  _0x20C0003
                 ; 0000 0B07 }
                 ;
                 ;unsigned char ucmax (float input1, float input2)
                 ; 0000 0B0A {
                 _ucmax:
                 ; 0000 0B0B     if (input1 > input2)
0017f9 940e 219f 	CALL __PUTPARD2
                 ;	input1 -> Y+4
                 ;	input2 -> Y+0
0017fb 940e 2186 	CALL __GETD1S0
                +
0017fd 81ac     +LDD R26 , Y + 4
0017fe 81bd     +LDD R27 , Y + 4 + 1
0017ff 818e     +LDD R24 , Y + 4 + 2
001800 819f     +LDD R25 , Y + 4 + 3
                 	__GETD2S 4
001801 940e 2072 	CALL __CMPF12
001803 f009      	BREQ PC+2
001804 f410      	BRCC PC+3
001805 940c 181d 	JMP  _0x8C
                 ; 0000 0B0C     {
                 ; 0000 0B0D         if (input1 > 255.0)
                +
001807 e0e0     +LDI R30 , LOW ( 0x437F0000 )
001808 e0f0     +LDI R31 , HIGH ( 0x437F0000 )
001809 e76f     +LDI R22 , BYTE3 ( 0x437F0000 )
00180a e473     +LDI R23 , BYTE4 ( 0x437F0000 )
                 	__GETD1N 0x437F0000
00180b 940e 2072 	CALL __CMPF12
00180d f009      	BREQ PC+2
00180e f410      	BRCC PC+3
00180f 940c 1813 	JMP  _0x8D
                 ; 0000 0B0E             return 255;
001811 efef      	LDI  R30,LOW(255)
001812 c055      	RJMP _0x20C0009
                 ; 0000 0B0F         if (input1 < 0.0)
                 _0x8D:
001813 81af      	LDD  R26,Y+7
001814 23aa      	TST  R26
001815 f412      	BRPL _0x8E
                 ; 0000 0B10             return 0;
001816 e0e0      	LDI  R30,LOW(0)
001817 c050      	RJMP _0x20C0009
                 ; 0000 0B11         return nearest_si(input1);
                 _0x8E:
                +
001818 81ac     +LDD R26 , Y + 4
001819 81bd     +LDD R27 , Y + 4 + 1
00181a 818e     +LDD R24 , Y + 4 + 2
00181b 819f     +LDD R25 , Y + 4 + 3
                 	__GETD2S 4
00181c c04a      	RJMP _0x20C000A
                 ; 0000 0B12     }
                 ; 0000 0B13     if (input2 > 255.0)
                 _0x8C:
00181d 940e 218b 	CALL __GETD2S0
                +
00181f e0e0     +LDI R30 , LOW ( 0x437F0000 )
001820 e0f0     +LDI R31 , HIGH ( 0x437F0000 )
001821 e76f     +LDI R22 , BYTE3 ( 0x437F0000 )
001822 e473     +LDI R23 , BYTE4 ( 0x437F0000 )
                 	__GETD1N 0x437F0000
001823 940e 2072 	CALL __CMPF12
001825 f009      	BREQ PC+2
001826 f410      	BRCC PC+3
001827 940c 182b 	JMP  _0x8F
                 ; 0000 0B14         return 255;
001829 efef      	LDI  R30,LOW(255)
00182a c03d      	RJMP _0x20C0009
                 ; 0000 0B15     if (input2 < 0.0)
                 _0x8F:
00182b 81ab      	LDD  R26,Y+3
00182c 23aa      	TST  R26
00182d f412      	BRPL _0x90
                 ; 0000 0B16         return 0;
00182e e0e0      	LDI  R30,LOW(0)
00182f c038      	RJMP _0x20C0009
                 ; 0000 0B17     return nearest_si(input2);
                 _0x90:
001830 c034      	RJMP _0x20C000B
                 ; 0000 0B18 }
                 ;
                 ;unsigned char ucmin (float input1, float input2)
                 ; 0000 0B1B {
                 _ucmin:
                 ; 0000 0B1C     if (input1 < input2)
001831 940e 219f 	CALL __PUTPARD2
                 ;	input1 -> Y+4
                 ;	input2 -> Y+0
001833 940e 2186 	CALL __GETD1S0
                +
001835 81ac     +LDD R26 , Y + 4
001836 81bd     +LDD R27 , Y + 4 + 1
001837 818e     +LDD R24 , Y + 4 + 2
001838 819f     +LDD R25 , Y + 4 + 3
                 	__GETD2S 4
001839 940e 2072 	CALL __CMPF12
00183b f4b0      	BRSH _0x91
                 ; 0000 0B1D     {
                 ; 0000 0B1E         if (input1 > 255.0)
                +
00183c e0e0     +LDI R30 , LOW ( 0x437F0000 )
00183d e0f0     +LDI R31 , HIGH ( 0x437F0000 )
00183e e76f     +LDI R22 , BYTE3 ( 0x437F0000 )
00183f e473     +LDI R23 , BYTE4 ( 0x437F0000 )
                 	__GETD1N 0x437F0000
001840 940e 2072 	CALL __CMPF12
001842 f009      	BREQ PC+2
001843 f410      	BRCC PC+3
001844 940c 1848 	JMP  _0x92
                 ; 0000 0B1F             return 255;
001846 efef      	LDI  R30,LOW(255)
001847 c020      	RJMP _0x20C0009
                 ; 0000 0B20         if (input1 < 0.0)
                 _0x92:
001848 81af      	LDD  R26,Y+7
001849 23aa      	TST  R26
00184a f412      	BRPL _0x93
                 ; 0000 0B21             return 0;
00184b e0e0      	LDI  R30,LOW(0)
00184c c01b      	RJMP _0x20C0009
                 ; 0000 0B22         return nearest_si(input1);
                 _0x93:
                +
00184d 81ac     +LDD R26 , Y + 4
00184e 81bd     +LDD R27 , Y + 4 + 1
00184f 818e     +LDD R24 , Y + 4 + 2
001850 819f     +LDD R25 , Y + 4 + 3
                 	__GETD2S 4
001851 c015      	RJMP _0x20C000A
                 ; 0000 0B23     }
                 ; 0000 0B24     if (input2 > 255.0)
                 _0x91:
001852 940e 218b 	CALL __GETD2S0
                +
001854 e0e0     +LDI R30 , LOW ( 0x437F0000 )
001855 e0f0     +LDI R31 , HIGH ( 0x437F0000 )
001856 e76f     +LDI R22 , BYTE3 ( 0x437F0000 )
001857 e473     +LDI R23 , BYTE4 ( 0x437F0000 )
                 	__GETD1N 0x437F0000
001858 940e 2072 	CALL __CMPF12
00185a f009      	BREQ PC+2
00185b f410      	BRCC PC+3
00185c 940c 1860 	JMP  _0x94
                 ; 0000 0B25         return 255;
00185e efef      	LDI  R30,LOW(255)
00185f c008      	RJMP _0x20C0009
                 ; 0000 0B26     if (input2 < 0.0)
                 _0x94:
001860 81ab      	LDD  R26,Y+3
001861 23aa      	TST  R26
001862 f412      	BRPL _0x95
                 ; 0000 0B27         return 0;
001863 e0e0      	LDI  R30,LOW(0)
001864 c003      	RJMP _0x20C0009
                 ; 0000 0B28     return nearest_si(input2);
                 _0x95:
                 _0x20C000B:
001865 940e 218b 	CALL __GETD2S0
                 _0x20C000A:
001867 df32      	RCALL _nearest_si
                 _0x20C0009:
001868 9628      	ADIW R28,8
001869 9508      	RET
                 ; 0000 0B29 }
                 ;
                 ;unsigned char ucmax3 (float input1, float input2, float input3)
                 ; 0000 0B2C {
                 _ucmax3:
                 ; 0000 0B2D     if ((input1 > input2) && (input1 > input3))
00186a 940e 219f 	CALL __PUTPARD2
                 ;	input1 -> Y+8
                 ;	input2 -> Y+4
                 ;	input3 -> Y+0
                +
00186c 81ec     +LDD R30 , Y + 4
00186d 81fd     +LDD R31 , Y + 4 + 1
00186e 816e     +LDD R22 , Y + 4 + 2
00186f 817f     +LDD R23 , Y + 4 + 3
                 	__GETD1S 4
                +
001870 85a8     +LDD R26 , Y + 8
001871 85b9     +LDD R27 , Y + 8 + 1
001872 858a     +LDD R24 , Y + 8 + 2
001873 859b     +LDD R25 , Y + 8 + 3
                 	__GETD2S 8
001874 940e 2072 	CALL __CMPF12
001876 f009      	BREQ PC+2
001877 f410      	BRCC PC+3
001878 940c 1883 	JMP  _0x97
00187a 940e 2186 	CALL __GETD1S0
00187c 940e 2072 	CALL __CMPF12
00187e f009      	BREQ PC+2
00187f f410      	BRCC PC+3
001880 940c 1883 	JMP  _0x97
001882 c001      	RJMP _0x98
                 _0x97:
001883 c01e      	RJMP _0x96
                 _0x98:
                 ; 0000 0B2E     {
                 ; 0000 0B2F         if (input1 > 255.0)
                +
001884 85a8     +LDD R26 , Y + 8
001885 85b9     +LDD R27 , Y + 8 + 1
001886 858a     +LDD R24 , Y + 8 + 2
001887 859b     +LDD R25 , Y + 8 + 3
                 	__GETD2S 8
                +
001888 e0e0     +LDI R30 , LOW ( 0x437F0000 )
001889 e0f0     +LDI R31 , HIGH ( 0x437F0000 )
00188a e76f     +LDI R22 , BYTE3 ( 0x437F0000 )
00188b e473     +LDI R23 , BYTE4 ( 0x437F0000 )
                 	__GETD1N 0x437F0000
00188c 940e 2072 	CALL __CMPF12
00188e f009      	BREQ PC+2
00188f f410      	BRCC PC+3
001890 940c 1895 	JMP  _0x99
                 ; 0000 0B30             return 255;
001892 efef      	LDI  R30,LOW(255)
001893 940c 1ec0 	JMP  _0x20C0001
                 ; 0000 0B31         if (input1 < 0.0)
                 _0x99:
001895 85ab      	LDD  R26,Y+11
001896 23aa      	TST  R26
001897 f41a      	BRPL _0x9A
                 ; 0000 0B32             return 0;
001898 e0e0      	LDI  R30,LOW(0)
001899 940c 1ec0 	JMP  _0x20C0001
                 ; 0000 0B33         return nearest_si(input1);
                 _0x9A:
                +
00189b 85a8     +LDD R26 , Y + 8
00189c 85b9     +LDD R27 , Y + 8 + 1
00189d 858a     +LDD R24 , Y + 8 + 2
00189e 859b     +LDD R25 , Y + 8 + 3
                 	__GETD2S 8
00189f defa      	RCALL _nearest_si
0018a0 940c 1ec0 	JMP  _0x20C0001
                 ; 0000 0B34     }
                 ; 0000 0B35     if (input2 > input3)
                 _0x96:
0018a2 940e 2186 	CALL __GETD1S0
                +
0018a4 81ac     +LDD R26 , Y + 4
0018a5 81bd     +LDD R27 , Y + 4 + 1
0018a6 818e     +LDD R24 , Y + 4 + 2
0018a7 819f     +LDD R25 , Y + 4 + 3
                 	__GETD2S 4
0018a8 940e 2072 	CALL __CMPF12
0018aa f009      	BREQ PC+2
0018ab f410      	BRCC PC+3
0018ac 940c 18c8 	JMP  _0x9B
                 ; 0000 0B36     {
                 ; 0000 0B37         if (input2 > 255.0)
                +
0018ae e0e0     +LDI R30 , LOW ( 0x437F0000 )
0018af e0f0     +LDI R31 , HIGH ( 0x437F0000 )
0018b0 e76f     +LDI R22 , BYTE3 ( 0x437F0000 )
0018b1 e473     +LDI R23 , BYTE4 ( 0x437F0000 )
                 	__GETD1N 0x437F0000
0018b2 940e 2072 	CALL __CMPF12
0018b4 f009      	BREQ PC+2
0018b5 f410      	BRCC PC+3
0018b6 940c 18bb 	JMP  _0x9C
                 ; 0000 0B38             return 255;
0018b8 efef      	LDI  R30,LOW(255)
0018b9 940c 1ec0 	JMP  _0x20C0001
                 ; 0000 0B39         if (input2 < 0.0)
                 _0x9C:
0018bb 81af      	LDD  R26,Y+7
0018bc 23aa      	TST  R26
0018bd f41a      	BRPL _0x9D
                 ; 0000 0B3A             return 0;
0018be e0e0      	LDI  R30,LOW(0)
0018bf 940c 1ec0 	JMP  _0x20C0001
                 ; 0000 0B3B         return nearest_si(input2);
                 _0x9D:
                +
0018c1 81ac     +LDD R26 , Y + 4
0018c2 81bd     +LDD R27 , Y + 4 + 1
0018c3 818e     +LDD R24 , Y + 4 + 2
0018c4 819f     +LDD R25 , Y + 4 + 3
                 	__GETD2S 4
0018c5 ded4      	RCALL _nearest_si
0018c6 940c 1ec0 	JMP  _0x20C0001
                 ; 0000 0B3C     }
                 ; 0000 0B3D     if (input3 > 255.0)
                 _0x9B:
0018c8 940e 218b 	CALL __GETD2S0
                +
0018ca e0e0     +LDI R30 , LOW ( 0x437F0000 )
0018cb e0f0     +LDI R31 , HIGH ( 0x437F0000 )
0018cc e76f     +LDI R22 , BYTE3 ( 0x437F0000 )
0018cd e473     +LDI R23 , BYTE4 ( 0x437F0000 )
                 	__GETD1N 0x437F0000
0018ce 940e 2072 	CALL __CMPF12
0018d0 f009      	BREQ PC+2
0018d1 f410      	BRCC PC+3
0018d2 940c 18d7 	JMP  _0x9E
                 ; 0000 0B3E         return 255;
0018d4 efef      	LDI  R30,LOW(255)
0018d5 940c 1ec0 	JMP  _0x20C0001
                 ; 0000 0B3F     if (input3 < 0.0)
                 _0x9E:
0018d7 81ab      	LDD  R26,Y+3
0018d8 23aa      	TST  R26
0018d9 f41a      	BRPL _0x9F
                 ; 0000 0B40         return 0;
0018da e0e0      	LDI  R30,LOW(0)
0018db 940c 1ec0 	JMP  _0x20C0001
                 ; 0000 0B41     return nearest_si(input3);
                 _0x9F:
0018dd 940e 218b 	CALL __GETD2S0
0018df deba      	RCALL _nearest_si
0018e0 940c 1ec0 	JMP  _0x20C0001
                 ; 0000 0B42 }
                 ;
                 ;unsigned char ucmin3 (float input1, float input2, float input3)
                 ; 0000 0B45 {
                 _ucmin3:
                 ; 0000 0B46     if ((input1 < input2) && (input1 < input3))
0018e2 940e 219f 	CALL __PUTPARD2
                 ;	input1 -> Y+8
                 ;	input2 -> Y+4
                 ;	input3 -> Y+0
                +
0018e4 81ec     +LDD R30 , Y + 4
0018e5 81fd     +LDD R31 , Y + 4 + 1
0018e6 816e     +LDD R22 , Y + 4 + 2
0018e7 817f     +LDD R23 , Y + 4 + 3
                 	__GETD1S 4
                +
0018e8 85a8     +LDD R26 , Y + 8
0018e9 85b9     +LDD R27 , Y + 8 + 1
0018ea 858a     +LDD R24 , Y + 8 + 2
0018eb 859b     +LDD R25 , Y + 8 + 3
                 	__GETD2S 8
0018ec 940e 2072 	CALL __CMPF12
0018ee f428      	BRSH _0xA1
0018ef 940e 2186 	CALL __GETD1S0
0018f1 940e 2072 	CALL __CMPF12
0018f3 f008      	BRLO _0xA2
                 _0xA1:
0018f4 c01e      	RJMP _0xA0
                 _0xA2:
                 ; 0000 0B47     {
                 ; 0000 0B48         if (input1 > 255.0)
                +
0018f5 85a8     +LDD R26 , Y + 8
0018f6 85b9     +LDD R27 , Y + 8 + 1
0018f7 858a     +LDD R24 , Y + 8 + 2
0018f8 859b     +LDD R25 , Y + 8 + 3
                 	__GETD2S 8
                +
0018f9 e0e0     +LDI R30 , LOW ( 0x437F0000 )
0018fa e0f0     +LDI R31 , HIGH ( 0x437F0000 )
0018fb e76f     +LDI R22 , BYTE3 ( 0x437F0000 )
0018fc e473     +LDI R23 , BYTE4 ( 0x437F0000 )
                 	__GETD1N 0x437F0000
0018fd 940e 2072 	CALL __CMPF12
0018ff f009      	BREQ PC+2
001900 f410      	BRCC PC+3
001901 940c 1906 	JMP  _0xA3
                 ; 0000 0B49             return 255;
001903 efef      	LDI  R30,LOW(255)
001904 940c 1ec0 	JMP  _0x20C0001
                 ; 0000 0B4A         if (input1 < 0.0)
                 _0xA3:
001906 85ab      	LDD  R26,Y+11
001907 23aa      	TST  R26
001908 f41a      	BRPL _0xA4
                 ; 0000 0B4B             return 0;
001909 e0e0      	LDI  R30,LOW(0)
00190a 940c 1ec0 	JMP  _0x20C0001
                 ; 0000 0B4C         return nearest_si(input1);
                 _0xA4:
                +
00190c 85a8     +LDD R26 , Y + 8
00190d 85b9     +LDD R27 , Y + 8 + 1
00190e 858a     +LDD R24 , Y + 8 + 2
00190f 859b     +LDD R25 , Y + 8 + 3
                 	__GETD2S 8
001910 de89      	RCALL _nearest_si
001911 940c 1ec0 	JMP  _0x20C0001
                 ; 0000 0B4D     }
                 ; 0000 0B4E     if (input2 < input3)
                 _0xA0:
001913 940e 2186 	CALL __GETD1S0
                +
001915 81ac     +LDD R26 , Y + 4
001916 81bd     +LDD R27 , Y + 4 + 1
001917 818e     +LDD R24 , Y + 4 + 2
001918 819f     +LDD R25 , Y + 4 + 3
                 	__GETD2S 4
001919 940e 2072 	CALL __CMPF12
00191b f4d0      	BRSH _0xA5
                 ; 0000 0B4F     {
                 ; 0000 0B50         if (input2 > 255.0)
                +
00191c e0e0     +LDI R30 , LOW ( 0x437F0000 )
00191d e0f0     +LDI R31 , HIGH ( 0x437F0000 )
00191e e76f     +LDI R22 , BYTE3 ( 0x437F0000 )
00191f e473     +LDI R23 , BYTE4 ( 0x437F0000 )
                 	__GETD1N 0x437F0000
001920 940e 2072 	CALL __CMPF12
001922 f009      	BREQ PC+2
001923 f410      	BRCC PC+3
001924 940c 1929 	JMP  _0xA6
                 ; 0000 0B51             return 255;
001926 efef      	LDI  R30,LOW(255)
001927 940c 1ec0 	JMP  _0x20C0001
                 ; 0000 0B52         if (input2 < 0.0)
                 _0xA6:
001929 81af      	LDD  R26,Y+7
00192a 23aa      	TST  R26
00192b f41a      	BRPL _0xA7
                 ; 0000 0B53             return 0;
00192c e0e0      	LDI  R30,LOW(0)
00192d 940c 1ec0 	JMP  _0x20C0001
                 ; 0000 0B54         return nearest_si(input2);
                 _0xA7:
                +
00192f 81ac     +LDD R26 , Y + 4
001930 81bd     +LDD R27 , Y + 4 + 1
001931 818e     +LDD R24 , Y + 4 + 2
001932 819f     +LDD R25 , Y + 4 + 3
                 	__GETD2S 4
001933 de66      	RCALL _nearest_si
001934 940c 1ec0 	JMP  _0x20C0001
                 ; 0000 0B55     }
                 ; 0000 0B56     if (input3 > 255.0)
                 _0xA5:
001936 940e 218b 	CALL __GETD2S0
                +
001938 e0e0     +LDI R30 , LOW ( 0x437F0000 )
001939 e0f0     +LDI R31 , HIGH ( 0x437F0000 )
00193a e76f     +LDI R22 , BYTE3 ( 0x437F0000 )
00193b e473     +LDI R23 , BYTE4 ( 0x437F0000 )
                 	__GETD1N 0x437F0000
00193c 940e 2072 	CALL __CMPF12
00193e f009      	BREQ PC+2
00193f f410      	BRCC PC+3
001940 940c 1945 	JMP  _0xA8
                 ; 0000 0B57         return 255;
001942 efef      	LDI  R30,LOW(255)
001943 940c 1ec0 	JMP  _0x20C0001
                 ; 0000 0B58     if (input3 < 0.0)
                 _0xA8:
001945 81ab      	LDD  R26,Y+3
001946 23aa      	TST  R26
001947 f41a      	BRPL _0xA9
                 ; 0000 0B59         return 0;
001948 e0e0      	LDI  R30,LOW(0)
001949 940c 1ec0 	JMP  _0x20C0001
                 ; 0000 0B5A     return nearest_si(input3);
                 _0xA9:
00194b 940e 218b 	CALL __GETD2S0
00194d de4c      	RCALL _nearest_si
00194e 940c 1ec0 	JMP  _0x20C0001
                 ; 0000 0B5B }
                 ;
                 ;//______________________________________________________________MAIN____________________________________________________________
                 ;void main(void)
                 ; 0000 0B5F {
                 _main:
                 ; 0000 0B60 // Declare your local variables here
                 ; 0000 0B61 unsigned char n;
                 ; 0000 0B62 unsigned int i;
                 ; 0000 0B63 
                 ; 0000 0B64 do {
                 ;	n -> R17
                 ;	i -> R18,R19
                 ; 0000 0B65     // Interrupt system initialization
                 ; 0000 0B66     // Optimize for speed
                 ; 0000 0B67 #pragma optsize-
                 ; 0000 0B68     // Make sure the interrupts are disabled
                 ; 0000 0B69 #asm("cli")
001950 94f8      	cli
                 ; 0000 0B6A     // Low level interrupt: On
                 ; 0000 0B6B     // Round-robin scheduling for low level interrupt: Off
                 ; 0000 0B6C     // Medium level interrupt: On
                 ; 0000 0B6D     // High level interrupt: On
                 ; 0000 0B6E     // The interrupt vectors will be placed at the start of the Application FLASH section
                 ; 0000 0B6F     n=(PMIC.CTRL & (~(PMIC_RREN_bm | PMIC_IVSEL_bm | PMIC_HILVLEN_bm | PMIC_MEDLVLEN_bm | PMIC_LOLVLEN_bm))) |
                 ; 0000 0B70     	PMIC_LOLVLEN_bm | PMIC_MEDLVLEN_bm | PMIC_HILVLEN_bm;
001951 91e0 00a2 	LDS  R30,162
001953 73e8      	ANDI R30,LOW(0x38)
001954 60e7      	ORI  R30,LOW(0x7)
001955 2f1e      	MOV  R17,R30
                 ; 0000 0B71     CCP=CCP_IOREG_gc;
001956 ede8      	LDI  R30,LOW(216)
001957 bfe4      	OUT  0x34,R30
                 ; 0000 0B72     PMIC.CTRL=n;
001958 9310 00a2 	STS  162,R17
                 ; 0000 0B73     // Set the default priority for round-robin scheduling
                 ; 0000 0B74     PMIC.INTPRI=0x00;
00195a e0e0      	LDI  R30,LOW(0)
00195b 93e0 00a1 	STS  161,R30
                 ; 0000 0B75     // Restore optimization for size if needed
                 ; 0000 0B76 #pragma optsize_default
                 ; 0000 0B77 
                 ; 0000 0B78     // System clocks initialization
                 ; 0000 0B79     system_clocks_init();
00195d 940e 0a2b 	CALL _system_clocks_init
                 ; 0000 0B7A 
                 ; 0000 0B7B     // Event system initialization
                 ; 0000 0B7C     event_system_init();
00195f 940e 0c9d 	CALL _event_system_init
                 ; 0000 0B7D 
                 ; 0000 0B7E     // Ports initialization
                 ; 0000 0B7F     ports_init();
001961 940e 0a6a 	CALL _ports_init
                 ; 0000 0B80 
                 ; 0000 0B81     // Virtual Ports initialization
                 ; 0000 0B82     vports_init();
001963 940e 0baf 	CALL _vports_init
                 ; 0000 0B83 
                 ; 0000 0B84     // Timer/Counter TCC0 initialization
                 ; 0000 0B85     tcc0_init();
001965 940e 0c26 	CALL _tcc0_init
                 ; 0000 0B86 
                 ; 0000 0B87     // Timer/Counter TCD0 initialization
                 ; 0000 0B88     tcd0_init();
001967 940e 0bcc 	CALL _tcd0_init
                 ; 0000 0B89 
                 ; 0000 0B8A     // Timer/Counter TCE0 initialization
                 ; 0000 0B8B     tce0_init();
001969 940e 0e57 	CALL _tce0_init
                 ; 0000 0B8C 
                 ; 0000 0B8D     // Timer/Counter TCE1 initialization
                 ; 0000 0B8E     tce1_init();
00196b 940e 0ed2 	CALL _tce1_init
                 ; 0000 0B8F 
                 ; 0000 0B90     // Timer/Counter TCF0 initialization
                 ; 0000 0B91     tcf0_init();
00196d 940e 0fae 	CALL _tcf0_init
                 ; 0000 0B92 
                 ; 0000 0B93     // ADCA initialization
                 ; 0000 0B94     adca_init((gain_index << 2) & 0b00011100);
00196f 91e0 3a1f 	LDS  R30,_gain_index
001971 0fee      	LSL  R30
001972 0fee      	LSL  R30
001973 71ec      	ANDI R30,LOW(0x1C)
001974 2fae      	MOV  R26,R30
001975 940e 0ce0 	CALL _adca_init
                 ; 0000 0B95 
                 ; 0000 0B96     // Alphanumeric LCD initialization
                 ; 0000 0B97     // Connections specified in the
                 ; 0000 0B98     // Project|Configure|C Compiler|Libraries|Alphanumeric LCD menu:
                 ; 0000 0B99     // RS - PORTE Bit 0
                 ; 0000 0B9A     // RD - PORTE Bit 1
                 ; 0000 0B9B     // EN - PORTE Bit 2
                 ; 0000 0B9C     // D4 - PORTE Bit 4
                 ; 0000 0B9D     // D5 - PORTE Bit 5
                 ; 0000 0B9E     // D6 - PORTE Bit 6
                 ; 0000 0B9F     // D7 - PORTE Bit 7
                 ; 0000 0BA0     // Characters/line: 16
                 ; 0000 0BA1     lcd_init(16);
001977 e1a0      	LDI  R26,LOW(16)
001978 d223      	RCALL _lcd_init
                 ; 0000 0BA2     delay_ms(500);
001979 efa4      	LDI  R26,LOW(500)
00197a e0b1      	LDI  R27,HIGH(500)
00197b 940e 1ec2 	CALL _delay_ms
                 ; 0000 0BA3     lcd_clear();
00197d d1c4      	RCALL _lcd_clear
                 ; 0000 0BA4     lcd_putsf("MzZ");
                +
00197e e7a4     +LDI R26 , LOW ( 2 * _0x0 + ( 116 ) )
00197f e1b3     +LDI R27 , HIGH ( 2 * _0x0 + ( 116 ) )
                 	__POINTW2FN _0x0,116
001980 d208      	RCALL _lcd_putsf
                 ; 0000 0BA5     delay_ms(1000);
001981 eea8      	LDI  R26,LOW(1000)
001982 e0b3      	LDI  R27,HIGH(1000)
001983 940e 1ec2 	CALL _delay_ms
                 ; 0000 0BA6     lcd_clear();
001985 d1bc      	RCALL _lcd_clear
                 ; 0000 0BA7 
                 ; 0000 0BA8     TCF0.CNT = 0x0000;
001986 e0e0      	LDI  R30,LOW(0)
001987 e0f0      	LDI  R31,HIGH(0)
001988 93e0 0b20 	STS  2848,R30
00198a 93f0 0b21 	STS  2848+1,R31
                 ; 0000 0BA9     TCF0.INTFLAGS = 0x01;
00198c e0e1      	LDI  R30,LOW(1)
00198d 93e0 0b0c 	STS  2828,R30
                 ; 0000 0BAA     TCF0.CTRLA = 0x00;
00198f e0e0      	LDI  R30,LOW(0)
001990 93e0 0b00 	STS  2816,R30
                 ; 0000 0BAB 
                 ; 0000 0BAC     menu_display_calib();
001992 940e 0ff9 	CALL _menu_display_calib
                 ; 0000 0BAD 
                 ; 0000 0BAE } while(0);
                 ; 0000 0BAF 
                 ; 0000 0BB0 // Globally enable interrupts
                 ; 0000 0BB1 #asm("sei")
001994 9478      	sei
                 ; 0000 0BB2 
                 ; 0000 0BB3     while (current_menu_state == menu_state_calib);
                 _0xAD:
001995 91e0 3a09 	LDS  R30,_current_menu_state
001997 30e0      	CPI  R30,0
001998 f3e1      	BREQ _0xAD
                 ; 0000 0BB4     lcd_clear();
001999 d1a8      	RCALL _lcd_clear
                 ; 0000 0BB5     while (1)
                 _0xB0:
                 ; 0000 0BB6     {
                 ; 0000 0BB7         // Place your code here
                 ; 0000 0BB8         while (sampling_state != SAMPLING_STATE_FFT);
                 _0xB3:
00199a e0e2      	LDI  R30,LOW(2)
00199b 15e2      	CP   R30,R2
00199c f7e9      	BRNE _0xB3
                 ; 0000 0BB9         rearrange_adc_data();
00199d dcd3      	RCALL _rearrange_adc_data
                 ; 0000 0BBA         cast_to_complex();
00199e dcfe      	RCALL _cast_to_complex
                 ; 0000 0BBB         fft();
00199f 940e 1600 	CALL _fft
                 ; 0000 0BBC         abs_fft();
0019a1 dd56      	RCALL _abs_fft
                 ; 0000 0BBD         convert_for_dac();
0019a2 ddbf      	RCALL _convert_for_dac
                 ; 0000 0BBE         sampling_state = SAMPLING_STATE_UPDATING;
0019a3 e0e3      	LDI  R30,LOW(3)
0019a4 2e2e      	MOV  R2,R30
                 ; 0000 0BBF         dac_inputs_max[255] = ucmax(fft_adc.fft_abs[0],(fft_adc.fft_abs[0] + fft_adc.fft_abs[1])*0.5);
0019a5 91e0 2800 	LDS  R30,_fft_adc
0019a7 91f0 2801 	LDS  R31,_fft_adc+1
0019a9 9160 2802 	LDS  R22,_fft_adc+2
0019ab 9170 2803 	LDS  R23,_fft_adc+3
0019ad 940e 219a 	CALL __PUTPARD1
                +
0019af 91e0 2804+LDS R30 , _fft_adc + ( 4 )
0019b1 91f0 2805+LDS R31 , _fft_adc + ( 4 ) + 1
0019b3 9160 2806+LDS R22 , _fft_adc + ( 4 ) + 2
0019b5 9170 2807+LDS R23 , _fft_adc + ( 4 ) + 3
                 	__GETD1MN _fft_adc,4
0019b7 91a0 2800 	LDS  R26,_fft_adc
0019b9 91b0 2801 	LDS  R27,_fft_adc+1
0019bb 9180 2802 	LDS  R24,_fft_adc+2
0019bd 9190 2803 	LDS  R25,_fft_adc+3
0019bf 940e 1f8f 	CALL __ADDF12
                +
0019c1 e0a0     +LDI R26 , LOW ( 0x3F000000 )
0019c2 e0b0     +LDI R27 , HIGH ( 0x3F000000 )
0019c3 e080     +LDI R24 , BYTE3 ( 0x3F000000 )
0019c4 e39f     +LDI R25 , BYTE4 ( 0x3F000000 )
                 	__GETD2N 0x3F000000
0019c5 940e 1fdf 	CALL __MULF12
0019c7 01df      	MOVW R26,R30
0019c8 01cb      	MOVW R24,R22
0019c9 de2f      	RCALL _ucmax
                +
0019ca 93e0 39ff+STS _dac_inputs_max + ( 255 ) , R30
                 	__PUTB1MN _dac_inputs_max,255
                 ; 0000 0BC0         dac_inputs_min[255] = ucmin(fft_adc.fft_abs[0],(fft_adc.fft_abs[0] + fft_adc.fft_abs[1])*0.5);
0019cc 91e0 2800 	LDS  R30,_fft_adc
0019ce 91f0 2801 	LDS  R31,_fft_adc+1
0019d0 9160 2802 	LDS  R22,_fft_adc+2
0019d2 9170 2803 	LDS  R23,_fft_adc+3
0019d4 940e 219a 	CALL __PUTPARD1
                +
0019d6 91e0 2804+LDS R30 , _fft_adc + ( 4 )
0019d8 91f0 2805+LDS R31 , _fft_adc + ( 4 ) + 1
0019da 9160 2806+LDS R22 , _fft_adc + ( 4 ) + 2
0019dc 9170 2807+LDS R23 , _fft_adc + ( 4 ) + 3
                 	__GETD1MN _fft_adc,4
0019de 91a0 2800 	LDS  R26,_fft_adc
0019e0 91b0 2801 	LDS  R27,_fft_adc+1
0019e2 9180 2802 	LDS  R24,_fft_adc+2
0019e4 9190 2803 	LDS  R25,_fft_adc+3
0019e6 940e 1f8f 	CALL __ADDF12
                +
0019e8 e0a0     +LDI R26 , LOW ( 0x3F000000 )
0019e9 e0b0     +LDI R27 , HIGH ( 0x3F000000 )
0019ea e080     +LDI R24 , BYTE3 ( 0x3F000000 )
0019eb e39f     +LDI R25 , BYTE4 ( 0x3F000000 )
                 	__GETD2N 0x3F000000
0019ec 940e 1fdf 	CALL __MULF12
0019ee 01df      	MOVW R26,R30
0019ef 01cb      	MOVW R24,R22
0019f0 de40      	RCALL _ucmin
                +
0019f1 93e0 38ff+STS _dac_inputs_min + ( 255 ) , R30
                 	__PUTB1MN _dac_inputs_min,255
                 ; 0000 0BC1         for (i = 1; i < 255; i++)
                +
0019f3 e021     +LDI R18 , LOW ( 1 )
0019f4 e030     +LDI R19 , HIGH ( 1 )
                 	__GETWRN 18,19,1
                 _0xB7:
                +
0019f5 3f2f     +CPI R18 , LOW ( 255 )
0019f6 e0e0     +LDI R30 , HIGH ( 255 )
0019f7 073e     +CPC R19 , R30
                 	__CPWRN 18,19,255
0019f8 f010      	BRLO PC+3
0019f9 940c 1aba 	JMP _0xB8
                 ; 0000 0BC2         {
                 ; 0000 0BC3             dac_inputs_max[255 - i] = ucmax3(fft_adc.fft_abs[i],(fft_adc.fft_abs[i] + fft_adc.fft_abs[i + 1])*0.5,
                 ; 0000 0BC4                 (fft_adc.fft_abs[i] + fft_adc.fft_abs[i - 1])*0.5);
0019fb efef      	LDI  R30,LOW(255)
0019fc e0f0      	LDI  R31,HIGH(255)
0019fd 1be2      	SUB  R30,R18
0019fe 0bf3      	SBC  R31,R19
0019ff 50e0      	SUBI R30,LOW(-_dac_inputs_max)
001a00 4cf7      	SBCI R31,HIGH(-_dac_inputs_max)
001a01 93ff      	PUSH R31
001a02 93ef      	PUSH R30
001a03 01f9      	MOVW R30,R18
001a04 e0a0      	LDI  R26,LOW(_fft_adc)
001a05 e2b8      	LDI  R27,HIGH(_fft_adc)
001a06 940e 20b3 	CALL __LSLW2
001a08 0fae      	ADD  R26,R30
001a09 1fbf      	ADC  R27,R31
001a0a 940e 2171 	CALL __GETD1P
001a0c 940e 219a 	CALL __PUTPARD1
001a0e 01f9      	MOVW R30,R18
001a0f e0a0      	LDI  R26,LOW(_fft_adc)
001a10 e2b8      	LDI  R27,HIGH(_fft_adc)
001a11 940e 20b3 	CALL __LSLW2
001a13 0fae      	ADD  R26,R30
001a14 1fbf      	ADC  R27,R31
001a15 940e 2171 	CALL __GETD1P
001a17 937f      	PUSH R23
001a18 936f      	PUSH R22
001a19 93ff      	PUSH R31
001a1a 93ef      	PUSH R30
001a1b 01d9      	MOVW R26,R18
001a1c 940e 20c1 	CALL __MULW2_4
                +
001a1e 5fac     +SUBI R26 , LOW ( - _fft_adc - ( 4 ) )
001a1f 4db7     +SBCI R27 , HIGH ( - _fft_adc - ( 4 ) )
                 	__ADDW2MN _fft_adc,4
001a20 940e 2171 	CALL __GETD1P
001a22 91af      	POP  R26
001a23 91bf      	POP  R27
001a24 918f      	POP  R24
001a25 919f      	POP  R25
001a26 940e 1f8f 	CALL __ADDF12
                +
001a28 e0a0     +LDI R26 , LOW ( 0x3F000000 )
001a29 e0b0     +LDI R27 , HIGH ( 0x3F000000 )
001a2a e080     +LDI R24 , BYTE3 ( 0x3F000000 )
001a2b e39f     +LDI R25 , BYTE4 ( 0x3F000000 )
                 	__GETD2N 0x3F000000
001a2c 940e 1fdf 	CALL __MULF12
001a2e 940e 219a 	CALL __PUTPARD1
001a30 01f9      	MOVW R30,R18
001a31 e0a0      	LDI  R26,LOW(_fft_adc)
001a32 e2b8      	LDI  R27,HIGH(_fft_adc)
001a33 940e 20b3 	CALL __LSLW2
001a35 0fae      	ADD  R26,R30
001a36 1fbf      	ADC  R27,R31
001a37 940e 2171 	CALL __GETD1P
001a39 937f      	PUSH R23
001a3a 936f      	PUSH R22
001a3b 93ff      	PUSH R31
001a3c 93ef      	PUSH R30
001a3d 01f9      	MOVW R30,R18
001a3e 9731      	SBIW R30,1
001a3f e0a0      	LDI  R26,LOW(_fft_adc)
001a40 e2b8      	LDI  R27,HIGH(_fft_adc)
001a41 940e 20b3 	CALL __LSLW2
001a43 0fae      	ADD  R26,R30
001a44 1fbf      	ADC  R27,R31
001a45 940e 2171 	CALL __GETD1P
001a47 91af      	POP  R26
001a48 91bf      	POP  R27
001a49 918f      	POP  R24
001a4a 919f      	POP  R25
001a4b 940e 1f8f 	CALL __ADDF12
                +
001a4d e0a0     +LDI R26 , LOW ( 0x3F000000 )
001a4e e0b0     +LDI R27 , HIGH ( 0x3F000000 )
001a4f e080     +LDI R24 , BYTE3 ( 0x3F000000 )
001a50 e39f     +LDI R25 , BYTE4 ( 0x3F000000 )
                 	__GETD2N 0x3F000000
001a51 940e 1fdf 	CALL __MULF12
001a53 01df      	MOVW R26,R30
001a54 01cb      	MOVW R24,R22
001a55 de14      	RCALL _ucmax3
001a56 91af      	POP  R26
001a57 91bf      	POP  R27
001a58 93ec      	ST   X,R30
                 ; 0000 0BC5             dac_inputs_min[255 - i] = ucmin3(fft_adc.fft_abs[i],(fft_adc.fft_abs[i] + fft_adc.fft_abs[i + 1])*0.5,
                 ; 0000 0BC6                 (fft_adc.fft_abs[i] + fft_adc.fft_abs[i - 1])*0.5);
001a59 efef      	LDI  R30,LOW(255)
001a5a e0f0      	LDI  R31,HIGH(255)
001a5b 1be2      	SUB  R30,R18
001a5c 0bf3      	SBC  R31,R19
001a5d 50e0      	SUBI R30,LOW(-_dac_inputs_min)
001a5e 4cf8      	SBCI R31,HIGH(-_dac_inputs_min)
001a5f 93ff      	PUSH R31
001a60 93ef      	PUSH R30
001a61 01f9      	MOVW R30,R18
001a62 e0a0      	LDI  R26,LOW(_fft_adc)
001a63 e2b8      	LDI  R27,HIGH(_fft_adc)
001a64 940e 20b3 	CALL __LSLW2
001a66 0fae      	ADD  R26,R30
001a67 1fbf      	ADC  R27,R31
001a68 940e 2171 	CALL __GETD1P
001a6a 940e 219a 	CALL __PUTPARD1
001a6c 01f9      	MOVW R30,R18
001a6d e0a0      	LDI  R26,LOW(_fft_adc)
001a6e e2b8      	LDI  R27,HIGH(_fft_adc)
001a6f 940e 20b3 	CALL __LSLW2
001a71 0fae      	ADD  R26,R30
001a72 1fbf      	ADC  R27,R31
001a73 940e 2171 	CALL __GETD1P
001a75 937f      	PUSH R23
001a76 936f      	PUSH R22
001a77 93ff      	PUSH R31
001a78 93ef      	PUSH R30
001a79 01d9      	MOVW R26,R18
001a7a 940e 20c1 	CALL __MULW2_4
                +
001a7c 5fac     +SUBI R26 , LOW ( - _fft_adc - ( 4 ) )
001a7d 4db7     +SBCI R27 , HIGH ( - _fft_adc - ( 4 ) )
                 	__ADDW2MN _fft_adc,4
001a7e 940e 2171 	CALL __GETD1P
001a80 91af      	POP  R26
001a81 91bf      	POP  R27
001a82 918f      	POP  R24
001a83 919f      	POP  R25
001a84 940e 1f8f 	CALL __ADDF12
                +
001a86 e0a0     +LDI R26 , LOW ( 0x3F000000 )
001a87 e0b0     +LDI R27 , HIGH ( 0x3F000000 )
001a88 e080     +LDI R24 , BYTE3 ( 0x3F000000 )
001a89 e39f     +LDI R25 , BYTE4 ( 0x3F000000 )
                 	__GETD2N 0x3F000000
001a8a 940e 1fdf 	CALL __MULF12
001a8c 940e 219a 	CALL __PUTPARD1
001a8e 01f9      	MOVW R30,R18
001a8f e0a0      	LDI  R26,LOW(_fft_adc)
001a90 e2b8      	LDI  R27,HIGH(_fft_adc)
001a91 940e 20b3 	CALL __LSLW2
001a93 0fae      	ADD  R26,R30
001a94 1fbf      	ADC  R27,R31
001a95 940e 2171 	CALL __GETD1P
001a97 937f      	PUSH R23
001a98 936f      	PUSH R22
001a99 93ff      	PUSH R31
001a9a 93ef      	PUSH R30
001a9b 01f9      	MOVW R30,R18
001a9c 9731      	SBIW R30,1
001a9d e0a0      	LDI  R26,LOW(_fft_adc)
001a9e e2b8      	LDI  R27,HIGH(_fft_adc)
001a9f 940e 20b3 	CALL __LSLW2
001aa1 0fae      	ADD  R26,R30
001aa2 1fbf      	ADC  R27,R31
001aa3 940e 2171 	CALL __GETD1P
001aa5 91af      	POP  R26
001aa6 91bf      	POP  R27
001aa7 918f      	POP  R24
001aa8 919f      	POP  R25
001aa9 940e 1f8f 	CALL __ADDF12
                +
001aab e0a0     +LDI R26 , LOW ( 0x3F000000 )
001aac e0b0     +LDI R27 , HIGH ( 0x3F000000 )
001aad e080     +LDI R24 , BYTE3 ( 0x3F000000 )
001aae e39f     +LDI R25 , BYTE4 ( 0x3F000000 )
                 	__GETD2N 0x3F000000
001aaf 940e 1fdf 	CALL __MULF12
001ab1 01df      	MOVW R26,R30
001ab2 01cb      	MOVW R24,R22
001ab3 de2e      	RCALL _ucmin3
001ab4 91af      	POP  R26
001ab5 91bf      	POP  R27
001ab6 93ec      	ST   X,R30
                 ; 0000 0BC7         }
                +
001ab7 5f2f     +SUBI R18 , LOW ( - 1 )
001ab8 4f3f     +SBCI R19 , HIGH ( - 1 )
                 	__ADDWRN 18,19,1
001ab9 cf3b      	RJMP _0xB7
                 _0xB8:
                 ; 0000 0BC8         dac_inputs_max[0] = ucmax(fft_adc.fft_abs[255],(fft_adc.fft_abs[255] + fft_adc.fft_abs[254])*0.5);
                +
001aba 91e0 2bfc+LDS R30 , _fft_adc + ( 1020 )
001abc 91f0 2bfd+LDS R31 , _fft_adc + ( 1020 ) + 1
001abe 9160 2bfe+LDS R22 , _fft_adc + ( 1020 ) + 2
001ac0 9170 2bff+LDS R23 , _fft_adc + ( 1020 ) + 3
                 	__GETD1MN _fft_adc,1020
001ac2 940e 219a 	CALL __PUTPARD1
                +
001ac4 91a0 2bfc+LDS R26 , _fft_adc + ( 1020 )
001ac6 91b0 2bfd+LDS R27 , _fft_adc + ( 1020 ) + 1
001ac8 9180 2bfe+LDS R24 , _fft_adc + ( 1020 ) + 2
001aca 9190 2bff+LDS R25 , _fft_adc + ( 1020 ) + 3
                 	__GETD2MN _fft_adc,1020
                +
001acc 91e0 2bf8+LDS R30 , _fft_adc + ( 1016 )
001ace 91f0 2bf9+LDS R31 , _fft_adc + ( 1016 ) + 1
001ad0 9160 2bfa+LDS R22 , _fft_adc + ( 1016 ) + 2
001ad2 9170 2bfb+LDS R23 , _fft_adc + ( 1016 ) + 3
                 	__GETD1MN _fft_adc,1016
001ad4 940e 1f8f 	CALL __ADDF12
                +
001ad6 e0a0     +LDI R26 , LOW ( 0x3F000000 )
001ad7 e0b0     +LDI R27 , HIGH ( 0x3F000000 )
001ad8 e080     +LDI R24 , BYTE3 ( 0x3F000000 )
001ad9 e39f     +LDI R25 , BYTE4 ( 0x3F000000 )
                 	__GETD2N 0x3F000000
001ada 940e 1fdf 	CALL __MULF12
001adc 01df      	MOVW R26,R30
001add 01cb      	MOVW R24,R22
001ade dd1a      	RCALL _ucmax
001adf 93e0 3900 	STS  _dac_inputs_max,R30
                 ; 0000 0BC9         dac_inputs_min[0] = ucmin(fft_adc.fft_abs[255],(fft_adc.fft_abs[255] + fft_adc.fft_abs[254])*0.5);
                +
001ae1 91e0 2bfc+LDS R30 , _fft_adc + ( 1020 )
001ae3 91f0 2bfd+LDS R31 , _fft_adc + ( 1020 ) + 1
001ae5 9160 2bfe+LDS R22 , _fft_adc + ( 1020 ) + 2
001ae7 9170 2bff+LDS R23 , _fft_adc + ( 1020 ) + 3
                 	__GETD1MN _fft_adc,1020
001ae9 940e 219a 	CALL __PUTPARD1
                +
001aeb 91a0 2bfc+LDS R26 , _fft_adc + ( 1020 )
001aed 91b0 2bfd+LDS R27 , _fft_adc + ( 1020 ) + 1
001aef 9180 2bfe+LDS R24 , _fft_adc + ( 1020 ) + 2
001af1 9190 2bff+LDS R25 , _fft_adc + ( 1020 ) + 3
                 	__GETD2MN _fft_adc,1020
                +
001af3 91e0 2bf8+LDS R30 , _fft_adc + ( 1016 )
001af5 91f0 2bf9+LDS R31 , _fft_adc + ( 1016 ) + 1
001af7 9160 2bfa+LDS R22 , _fft_adc + ( 1016 ) + 2
001af9 9170 2bfb+LDS R23 , _fft_adc + ( 1016 ) + 3
                 	__GETD1MN _fft_adc,1016
001afb 940e 1f8f 	CALL __ADDF12
                +
001afd e0a0     +LDI R26 , LOW ( 0x3F000000 )
001afe e0b0     +LDI R27 , HIGH ( 0x3F000000 )
001aff e080     +LDI R24 , BYTE3 ( 0x3F000000 )
001b00 e39f     +LDI R25 , BYTE4 ( 0x3F000000 )
                 	__GETD2N 0x3F000000
001b01 940e 1fdf 	CALL __MULF12
001b03 01df      	MOVW R26,R30
001b04 01cb      	MOVW R24,R22
001b05 dd2b      	RCALL _ucmin
001b06 93e0 3800 	STS  _dac_inputs_min,R30
                 ; 0000 0BCA         sampling_state = SAMPLING_STATE_IDLE;
001b08 2422      	CLR  R2
                 ; 0000 0BCB     }
001b09 ce90      	RJMP _0xB0
                 ; 0000 0BCC }
                 _0xB9:
001b0a cfff      	RJMP _0xB9
                 
                 	.DSEG
                 
                 	.CSEG
                 __lcd_write_nibble_G100:
001b0b 93aa      	ST   -Y,R26
001b0c 91e0 0684 	LDS  R30,1668
001b0e 70ef      	ANDI R30,LOW(0xF)
001b0f 2fae      	MOV  R26,R30
001b10 81e8      	LD   R30,Y
001b11 7fe0      	ANDI R30,LOW(0xF0)
001b12 2bea      	OR   R30,R26
001b13 93e0 0684 	STS  1668,R30
                +
001b15 e185     +LDI R24 , LOW ( 21 )
                +__DELAY_USB_LOOP :
001b16 958a     +DEC R24
001b17 f7f1     +BRNE __DELAY_USB_LOOP
                 	__DELAY_USB 21
001b18 e0e4      	LDI  R30,LOW(4)
001b19 93e0 0685 	STS  1669,R30
                +
001b1b e385     +LDI R24 , LOW ( 53 )
                +__DELAY_USB_LOOP :
001b1c 958a     +DEC R24
001b1d f7f1     +BRNE __DELAY_USB_LOOP
                 	__DELAY_USB 53
001b1e 93e0 0686 	STS  1670,R30
                +
001b20 e385     +LDI R24 , LOW ( 53 )
                +__DELAY_USB_LOOP :
001b21 958a     +DEC R24
001b22 f7f1     +BRNE __DELAY_USB_LOOP
                 	__DELAY_USB 53
001b23 c0bf      	RJMP _0x20C0006
                 __lcd_write_data:
001b24 93aa      	ST   -Y,R26
001b25 81a8      	LD   R26,Y
001b26 dfe4      	RCALL __lcd_write_nibble_G100
001b27 81e8          ld    r30,y
001b28 95e2          swap  r30
001b29 83e8          st    y,r30
001b2a 81a8      	LD   R26,Y
001b2b dfdf      	RCALL __lcd_write_nibble_G100
                +
001b2c e980     +LDI R24 , LOW ( 400 )
001b2d e091     +LDI R25 , HIGH ( 400 )
                +__DELAY_USW_LOOP :
001b2e 9701     +SBIW R24 , 1
001b2f f7f1     +BRNE __DELAY_USW_LOOP
                 	__DELAY_USW 400
001b30 c0b2      	RJMP _0x20C0006
                 _lcd_gotoxy:
001b31 93aa      	ST   -Y,R26
001b32 81e8      	LD   R30,Y
001b33 e0f0      	LDI  R31,0
001b34 5def      	SUBI R30,LOW(-__base_y_G100)
001b35 4cf5      	SBCI R31,HIGH(-__base_y_G100)
001b36 81e0      	LD   R30,Z
001b37 81a9      	LDD  R26,Y+1
001b38 0fae      	ADD  R26,R30
001b39 dfea      	RCALL __lcd_write_data
001b3a 81e9      	LDD  R30,Y+1
001b3b 93e0 3a25 	STS  __lcd_x,R30
001b3d 81e8      	LD   R30,Y
001b3e 93e0 3a26 	STS  __lcd_y,R30
                 _0x20C0008:
001b40 9622      	ADIW R28,2
001b41 9508      	RET
                 _lcd_clear:
001b42 e0a2      	LDI  R26,LOW(2)
001b43 dfe0      	RCALL __lcd_write_data
001b44 e0a3      	LDI  R26,LOW(3)
001b45 e0b0      	LDI  R27,0
001b46 940e 1ec2 	CALL _delay_ms
001b48 e0ac      	LDI  R26,LOW(12)
001b49 dfda      	RCALL __lcd_write_data
001b4a e0a1      	LDI  R26,LOW(1)
001b4b dfd8      	RCALL __lcd_write_data
001b4c e0a3      	LDI  R26,LOW(3)
001b4d e0b0      	LDI  R27,0
001b4e 940e 1ec2 	CALL _delay_ms
001b50 e0e0      	LDI  R30,LOW(0)
001b51 93e0 3a26 	STS  __lcd_y,R30
001b53 93e0 3a25 	STS  __lcd_x,R30
001b55 9508      	RET
                 _lcd_putchar:
001b56 93aa      	ST   -Y,R26
001b57 81a8      	LD   R26,Y
001b58 30aa      	CPI  R26,LOW(0xA)
001b59 f031      	BREQ _0x2000005
001b5a 91e0 3a27 	LDS  R30,__lcd_maxx
001b5c 91a0 3a25 	LDS  R26,__lcd_x
001b5e 17ae      	CP   R26,R30
001b5f f060      	BRLO _0x2000004
                 _0x2000005:
001b60 e0e0      	LDI  R30,LOW(0)
001b61 93ea      	ST   -Y,R30
001b62 91a0 3a26 	LDS  R26,__lcd_y
001b64 5faf      	SUBI R26,-LOW(1)
001b65 93a0 3a26 	STS  __lcd_y,R26
001b67 dfc9      	RCALL _lcd_gotoxy
001b68 81a8      	LD   R26,Y
001b69 30aa      	CPI  R26,LOW(0xA)
001b6a f409      	BRNE _0x2000007
001b6b c077      	RJMP _0x20C0006
                 _0x2000007:
                 _0x2000004:
001b6c 91e0 3a25 	LDS  R30,__lcd_x
001b6e 5fef      	SUBI R30,-LOW(1)
001b6f 93e0 3a25 	STS  __lcd_x,R30
001b71 e0e1      	LDI  R30,LOW(1)
001b72 93e0 0685 	STS  1669,R30
001b74 81a8      	LD   R26,Y
001b75 dfae      	RCALL __lcd_write_data
001b76 e0e1      	LDI  R30,LOW(1)
001b77 93e0 0686 	STS  1670,R30
001b79 c069      	RJMP _0x20C0006
                 _lcd_puts:
001b7a 93ba      	ST   -Y,R27
001b7b 93aa      	ST   -Y,R26
001b7c 931a      	ST   -Y,R17
                 _0x2000008:
001b7d 81a9      	LDD  R26,Y+1
001b7e 81ba      	LDD  R27,Y+1+1
001b7f 91ed      	LD   R30,X+
001b80 83a9      	STD  Y+1,R26
001b81 83ba      	STD  Y+1+1,R27
001b82 2f1e      	MOV  R17,R30
001b83 30e0      	CPI  R30,0
001b84 f019      	BREQ _0x200000A
001b85 2fa1      	MOV  R26,R17
001b86 dfcf      	RCALL _lcd_putchar
001b87 cff5      	RJMP _0x2000008
                 _0x200000A:
001b88 c010      	RJMP _0x20C0007
                 _lcd_putsf:
001b89 93ba      	ST   -Y,R27
001b8a 93aa      	ST   -Y,R26
001b8b 931a      	ST   -Y,R17
                 _0x200000B:
001b8c 81e9      	LDD  R30,Y+1
001b8d 81fa      	LDD  R31,Y+1+1
001b8e 9631      	ADIW R30,1
001b8f 83e9      	STD  Y+1,R30
001b90 83fa      	STD  Y+1+1,R31
001b91 9731      	SBIW R30,1
001b92 91e4      	LPM  R30,Z
001b93 2f1e      	MOV  R17,R30
001b94 30e0      	CPI  R30,0
001b95 f019      	BREQ _0x200000D
001b96 2fa1      	MOV  R26,R17
001b97 dfbe      	RCALL _lcd_putchar
001b98 cff3      	RJMP _0x200000B
                 _0x200000D:
                 _0x20C0007:
001b99 8118      	LDD  R17,Y+0
001b9a 9623      	ADIW R28,3
001b9b 9508      	RET
                 _lcd_init:
001b9c 93aa      	ST   -Y,R26
001b9d 91e0 0680 	LDS  R30,1664
001b9f 6fe0      	ORI  R30,LOW(0xF0)
001ba0 93e0 0680 	STS  1664,R30
001ba2 e0e4      	LDI  R30,LOW(4)
001ba3 93e0 0681 	STS  1665,R30
001ba5 e0e1      	LDI  R30,LOW(1)
001ba6 93e0 0681 	STS  1665,R30
001ba8 e0e2      	LDI  R30,LOW(2)
001ba9 93e0 0681 	STS  1665,R30
001bab e0e4      	LDI  R30,LOW(4)
001bac 93e0 0686 	STS  1670,R30
001bae e0e1      	LDI  R30,LOW(1)
001baf 93e0 0686 	STS  1670,R30
001bb1 e0e2      	LDI  R30,LOW(2)
001bb2 93e0 0686 	STS  1670,R30
001bb4 81e8      	LD   R30,Y
001bb5 93e0 3a27 	STS  __lcd_maxx,R30
001bb7 58e0      	SUBI R30,-LOW(128)
                +
001bb8 93e0 3a23+STS __base_y_G100 + ( 2 ) , R30
                 	__PUTB1MN __base_y_G100,2
001bba 81e8      	LD   R30,Y
001bbb 54e0      	SUBI R30,-LOW(192)
                +
001bbc 93e0 3a24+STS __base_y_G100 + ( 3 ) , R30
                 	__PUTB1MN __base_y_G100,3
001bbe e1a4      	LDI  R26,LOW(20)
001bbf e0b0      	LDI  R27,0
001bc0 940e 1ec2 	CALL _delay_ms
001bc2 e3a0      	LDI  R26,LOW(48)
001bc3 df47      	RCALL __lcd_write_nibble_G100
                +
001bc4 e280     +LDI R24 , LOW ( 800 )
001bc5 e093     +LDI R25 , HIGH ( 800 )
                +__DELAY_USW_LOOP :
001bc6 9701     +SBIW R24 , 1
001bc7 f7f1     +BRNE __DELAY_USW_LOOP
                 	__DELAY_USW 800
001bc8 e3a0      	LDI  R26,LOW(48)
001bc9 df41      	RCALL __lcd_write_nibble_G100
                +
001bca e280     +LDI R24 , LOW ( 800 )
001bcb e093     +LDI R25 , HIGH ( 800 )
                +__DELAY_USW_LOOP :
001bcc 9701     +SBIW R24 , 1
001bcd f7f1     +BRNE __DELAY_USW_LOOP
                 	__DELAY_USW 800
001bce e3a0      	LDI  R26,LOW(48)
001bcf df3b      	RCALL __lcd_write_nibble_G100
                +
001bd0 e280     +LDI R24 , LOW ( 800 )
001bd1 e093     +LDI R25 , HIGH ( 800 )
                +__DELAY_USW_LOOP :
001bd2 9701     +SBIW R24 , 1
001bd3 f7f1     +BRNE __DELAY_USW_LOOP
                 	__DELAY_USW 800
001bd4 e2a0      	LDI  R26,LOW(32)
001bd5 df35      	RCALL __lcd_write_nibble_G100
                +
001bd6 e280     +LDI R24 , LOW ( 800 )
001bd7 e093     +LDI R25 , HIGH ( 800 )
                +__DELAY_USW_LOOP :
001bd8 9701     +SBIW R24 , 1
001bd9 f7f1     +BRNE __DELAY_USW_LOOP
                 	__DELAY_USW 800
001bda e2a8      	LDI  R26,LOW(40)
001bdb df48      	RCALL __lcd_write_data
001bdc e0a4      	LDI  R26,LOW(4)
001bdd df46      	RCALL __lcd_write_data
001bde e8a5      	LDI  R26,LOW(133)
001bdf df44      	RCALL __lcd_write_data
001be0 e0a6      	LDI  R26,LOW(6)
001be1 df42      	RCALL __lcd_write_data
001be2 df5f      	RCALL _lcd_clear
                 _0x20C0006:
001be3 9621      	ADIW R28,1
001be4 9508      	RET
                 
                 	.CSEG
                 _ftrunc:
001be5 940e 219f 	CALL __PUTPARD2
001be7 817b         ldd  r23,y+3
001be8 816a         ldd  r22,y+2
001be9 81f9         ldd  r31,y+1
001bea 81e8         ld   r30,y
001beb fb77         bst  r23,7
001bec 0f77         lsl  r23
001bed fd67         sbrc r22,7
001bee 6071         sbr  r23,1
001bef 2f97         mov  r25,r23
001bf0 579e         subi r25,0x7e
001bf1 f081         breq __ftrunc0
001bf2 f078         brcs __ftrunc0
001bf3 3198         cpi  r25,24
001bf4 f490         brsh __ftrunc1
001bf5 27aa         clr  r26
001bf6 27bb         clr  r27
001bf7 2788         clr  r24
                 __ftrunc2:
001bf8 9408         sec
001bf9 9587         ror  r24
001bfa 95b7         ror  r27
001bfb 95a7         ror  r26
001bfc 959a         dec  r25
001bfd f7d1         brne __ftrunc2
001bfe 23ea         and  r30,r26
001bff 23fb         and  r31,r27
001c00 2368         and  r22,r24
001c01 c005         rjmp __ftrunc1
                 __ftrunc0:
001c02 94e8         clt
001c03 2777         clr  r23
001c04 27ee         clr  r30
001c05 27ff         clr  r31
001c06 2766         clr  r22
                 __ftrunc1:
001c07 776f         cbr  r22,0x80
001c08 9576         lsr  r23
001c09 f408         brcc __ftrunc3
001c0a 6860         sbr  r22,0x80
                 __ftrunc3:
001c0b f977         bld  r23,7
001c0c 91a9         ld   r26,y+
001c0d 91b9         ld   r27,y+
001c0e 9189         ld   r24,y+
001c0f 9199         ld   r25,y+
001c10 17ea         cp   r30,r26
001c11 07fb         cpc  r31,r27
001c12 0768         cpc  r22,r24
001c13 0779         cpc  r23,r25
001c14 fb97         bst  r25,7
001c15 9508         ret
                 _floor:
001c16 940e 219f 	CALL __PUTPARD2
001c18 940e 218b 	CALL __GETD2S0
001c1a 940e 1be5 	CALL _ftrunc
001c1c 940e 2190 	CALL __PUTD1S0
001c1e f419          brne __floor1
                 __floor0:
001c1f 940e 2186 	CALL __GETD1S0
001c21 c0c9      	RJMP _0x20C0003
                 __floor1:
001c22 f7e6          brtc __floor0
001c23 940e 2186 	CALL __GETD1S0
                +
001c25 e0a0     +LDI R26 , LOW ( 0x3F800000 )
001c26 e0b0     +LDI R27 , HIGH ( 0x3F800000 )
001c27 e880     +LDI R24 , BYTE3 ( 0x3F800000 )
001c28 e39f     +LDI R25 , BYTE4 ( 0x3F800000 )
                 	__GETD2N 0x3F800000
001c29 940e 1f88 	CALL __SUBF12
001c2b c0bf      	RJMP _0x20C0003
                 _log:
001c2c 940e 219f 	CALL __PUTPARD2
001c2e 9724      	SBIW R28,4
001c2f 931a      	ST   -Y,R17
001c30 930a      	ST   -Y,R16
                +
001c31 81ae     +LDD R26 , Y + 6
001c32 81bf     +LDD R27 , Y + 6 + 1
001c33 8588     +LDD R24 , Y + 6 + 2
001c34 8599     +LDD R25 , Y + 6 + 3
                 	__GETD2S 6
001c35 940e 21c7 	CALL __CPD02
001c37 f02c      	BRLT _0x202000C
                +
001c38 efef     +LDI R30 , LOW ( 0xFF7FFFFF )
001c39 efff     +LDI R31 , HIGH ( 0xFF7FFFFF )
001c3a e76f     +LDI R22 , BYTE3 ( 0xFF7FFFFF )
001c3b ef7f     +LDI R23 , BYTE4 ( 0xFF7FFFFF )
                 	__GETD1N 0xFF7FFFFF
001c3c c095      	RJMP _0x20C0004
                 _0x202000C:
                +
001c3d 81ee     +LDD R30 , Y + 6
001c3e 81ff     +LDD R31 , Y + 6 + 1
001c3f 8568     +LDD R22 , Y + 6 + 2
001c40 8579     +LDD R23 , Y + 6 + 3
                 	__GETD1S 6
001c41 940e 219a 	CALL __PUTPARD1
001c43 b7ad      	IN   R26,SPL
001c44 b7be      	IN   R27,SPH
001c45 9711      	SBIW R26,1
001c46 931f      	PUSH R17
001c47 930f      	PUSH R16
001c48 940e 1ecc 	CALL _frexp
001c4a 910f      	POP  R16
001c4b 911f      	POP  R17
                +
001c4c 83ee     +STD Y + 6 , R30
001c4d 83ff     +STD Y + 6 + 1 , R31
001c4e 8768     +STD Y + 6 + 2 , R22
001c4f 8779     +STD Y + 6 + 3 , R23
                 	__PUTD1S 6
                +
001c50 81ae     +LDD R26 , Y + 6
001c51 81bf     +LDD R27 , Y + 6 + 1
001c52 8588     +LDD R24 , Y + 6 + 2
001c53 8599     +LDD R25 , Y + 6 + 3
                 	__GETD2S 6
                +
001c54 efe3     +LDI R30 , LOW ( 0x3F3504F3 )
001c55 e0f4     +LDI R31 , HIGH ( 0x3F3504F3 )
001c56 e365     +LDI R22 , BYTE3 ( 0x3F3504F3 )
001c57 e37f     +LDI R23 , BYTE4 ( 0x3F3504F3 )
                 	__GETD1N 0x3F3504F3
001c58 940e 2072 	CALL __CMPF12
001c5a f460      	BRSH _0x202000D
                +
001c5b 81ee     +LDD R30 , Y + 6
001c5c 81ff     +LDD R31 , Y + 6 + 1
001c5d 8568     +LDD R22 , Y + 6 + 2
001c5e 8579     +LDD R23 , Y + 6 + 3
                 	__GETD1S 6
001c5f 940e 1f8f 	CALL __ADDF12
                +
001c61 83ee     +STD Y + 6 , R30
001c62 83ff     +STD Y + 6 + 1 , R31
001c63 8768     +STD Y + 6 + 2 , R22
001c64 8779     +STD Y + 6 + 3 , R23
                 	__PUTD1S 6
                +
001c65 5001     +SUBI R16 , LOW ( 1 )
001c66 4010     +SBCI R17 , HIGH ( 1 )
                 	__SUBWRN 16,17,1
                 _0x202000D:
                +
001c67 81ee     +LDD R30 , Y + 6
001c68 81ff     +LDD R31 , Y + 6 + 1
001c69 8568     +LDD R22 , Y + 6 + 2
001c6a 8579     +LDD R23 , Y + 6 + 3
                 	__GETD1S 6
                +
001c6b e0a0     +LDI R26 , LOW ( 0x3F800000 )
001c6c e0b0     +LDI R27 , HIGH ( 0x3F800000 )
001c6d e880     +LDI R24 , BYTE3 ( 0x3F800000 )
001c6e e39f     +LDI R25 , BYTE4 ( 0x3F800000 )
                 	__GETD2N 0x3F800000
001c6f 940e 1f88 	CALL __SUBF12
001c71 937f      	PUSH R23
001c72 936f      	PUSH R22
001c73 93ff      	PUSH R31
001c74 93ef      	PUSH R30
                +
001c75 81ee     +LDD R30 , Y + 6
001c76 81ff     +LDD R31 , Y + 6 + 1
001c77 8568     +LDD R22 , Y + 6 + 2
001c78 8579     +LDD R23 , Y + 6 + 3
                 	__GETD1S 6
                +
001c79 e0a0     +LDI R26 , LOW ( 0x3F800000 )
001c7a e0b0     +LDI R27 , HIGH ( 0x3F800000 )
001c7b e880     +LDI R24 , BYTE3 ( 0x3F800000 )
001c7c e39f     +LDI R25 , BYTE4 ( 0x3F800000 )
                 	__GETD2N 0x3F800000
001c7d 940e 1f8f 	CALL __ADDF12
001c7f 91af      	POP  R26
001c80 91bf      	POP  R27
001c81 918f      	POP  R24
001c82 919f      	POP  R25
001c83 940e 202d 	CALL __DIVF21
                +
001c85 83ee     +STD Y + 6 , R30
001c86 83ff     +STD Y + 6 + 1 , R31
001c87 8768     +STD Y + 6 + 2 , R22
001c88 8779     +STD Y + 6 + 3 , R23
                 	__PUTD1S 6
                +
001c89 81ae     +LDD R26 , Y + 6
001c8a 81bf     +LDD R27 , Y + 6 + 1
001c8b 8588     +LDD R24 , Y + 6 + 2
001c8c 8599     +LDD R25 , Y + 6 + 3
                 	__GETD2S 6
001c8d 940e 1fdf 	CALL __MULF12
                +
001c8f 83ea     +STD Y + 2 , R30
001c90 83fb     +STD Y + 2 + 1 , R31
001c91 836c     +STD Y + 2 + 2 , R22
001c92 837d     +STD Y + 2 + 3 , R23
                 	__PUTD1S 2
                +
001c93 e2a6     +LDI R26 , LOW ( 0x3F654226 )
001c94 e4b2     +LDI R27 , HIGH ( 0x3F654226 )
001c95 e685     +LDI R24 , BYTE3 ( 0x3F654226 )
001c96 e39f     +LDI R25 , BYTE4 ( 0x3F654226 )
                 	__GETD2N 0x3F654226
001c97 940e 1fdf 	CALL __MULF12
001c99 01df      	MOVW R26,R30
001c9a 01cb      	MOVW R24,R22
                +
001c9b e4ee     +LDI R30 , LOW ( 0x4054114E )
001c9c e1f1     +LDI R31 , HIGH ( 0x4054114E )
001c9d e564     +LDI R22 , BYTE3 ( 0x4054114E )
001c9e e470     +LDI R23 , BYTE4 ( 0x4054114E )
                 	__GETD1N 0x4054114E
001c9f 940e 21ac 	CALL __SWAPD12
001ca1 940e 1f88 	CALL __SUBF12
                +
001ca3 81ae     +LDD R26 , Y + 6
001ca4 81bf     +LDD R27 , Y + 6 + 1
001ca5 8588     +LDD R24 , Y + 6 + 2
001ca6 8599     +LDD R25 , Y + 6 + 3
                 	__GETD2S 6
001ca7 940e 1fdf 	CALL __MULF12
001ca9 937f      	PUSH R23
001caa 936f      	PUSH R22
001cab 93ff      	PUSH R31
001cac 93ef      	PUSH R30
                +
001cad 81ea     +LDD R30 , Y + 2
001cae 81fb     +LDD R31 , Y + 2 + 1
001caf 816c     +LDD R22 , Y + 2 + 2
001cb0 817d     +LDD R23 , Y + 2 + 3
                 	__GETD1S 2
                +
001cb1 e4ad     +LDI R26 , LOW ( 0x3FD4114D )
001cb2 e1b1     +LDI R27 , HIGH ( 0x3FD4114D )
001cb3 ed84     +LDI R24 , BYTE3 ( 0x3FD4114D )
001cb4 e39f     +LDI R25 , BYTE4 ( 0x3FD4114D )
                 	__GETD2N 0x3FD4114D
001cb5 940e 1f88 	CALL __SUBF12
001cb7 91af      	POP  R26
001cb8 91bf      	POP  R27
001cb9 918f      	POP  R24
001cba 919f      	POP  R25
001cbb 940e 202d 	CALL __DIVF21
001cbd 937f      	PUSH R23
001cbe 936f      	PUSH R22
001cbf 93ff      	PUSH R31
001cc0 93ef      	PUSH R30
001cc1 01f8      	MOVW R30,R16
001cc2 940e 20c6 	CALL __CWD1
001cc4 940e 1f55 	CALL __CDF1
                +
001cc6 e1a8     +LDI R26 , LOW ( 0x3F317218 )
001cc7 e7b2     +LDI R27 , HIGH ( 0x3F317218 )
001cc8 e381     +LDI R24 , BYTE3 ( 0x3F317218 )
001cc9 e39f     +LDI R25 , BYTE4 ( 0x3F317218 )
                 	__GETD2N 0x3F317218
001cca 940e 1fdf 	CALL __MULF12
001ccc 91af      	POP  R26
001ccd 91bf      	POP  R27
001cce 918f      	POP  R24
001ccf 919f      	POP  R25
001cd0 940e 1f8f 	CALL __ADDF12
                 _0x20C0004:
001cd2 8119      	LDD  R17,Y+1
001cd3 8108      	LDD  R16,Y+0
                 _0x20C0005:
001cd4 962a      	ADIW R28,10
001cd5 9508      	RET
                 _log10:
001cd6 940e 219f 	CALL __PUTPARD2
001cd8 940e 218b 	CALL __GETD2S0
001cda 940e 21c7 	CALL __CPD02
001cdc f02c      	BRLT _0x202000E
                +
001cdd efef     +LDI R30 , LOW ( 0xFF7FFFFF )
001cde efff     +LDI R31 , HIGH ( 0xFF7FFFFF )
001cdf e76f     +LDI R22 , BYTE3 ( 0xFF7FFFFF )
001ce0 ef7f     +LDI R23 , BYTE4 ( 0xFF7FFFFF )
                 	__GETD1N 0xFF7FFFFF
001ce1 c009      	RJMP _0x20C0003
                 _0x202000E:
001ce2 940e 218b 	CALL __GETD2S0
001ce4 df47      	RCALL _log
                +
001ce5 eda9     +LDI R26 , LOW ( 0x3EDE5BD9 )
001ce6 e5bb     +LDI R27 , HIGH ( 0x3EDE5BD9 )
001ce7 ed8e     +LDI R24 , BYTE3 ( 0x3EDE5BD9 )
001ce8 e39e     +LDI R25 , BYTE4 ( 0x3EDE5BD9 )
                 	__GETD2N 0x3EDE5BD9
001ce9 940e 1fdf 	CALL __MULF12
                 _0x20C0003:
001ceb 9624      	ADIW R28,4
001cec 9508      	RET
                 _exp:
001ced 940e 219f 	CALL __PUTPARD2
001cef 9728      	SBIW R28,8
001cf0 931a      	ST   -Y,R17
001cf1 930a      	ST   -Y,R16
                +
001cf2 85aa     +LDD R26 , Y + 10
001cf3 85bb     +LDD R27 , Y + 10 + 1
001cf4 858c     +LDD R24 , Y + 10 + 2
001cf5 859d     +LDD R25 , Y + 10 + 3
                 	__GETD2S 10
                +
001cf6 e5e0     +LDI R30 , LOW ( 0xC2AEAC50 )
001cf7 eafc     +LDI R31 , HIGH ( 0xC2AEAC50 )
001cf8 ea6e     +LDI R22 , BYTE3 ( 0xC2AEAC50 )
001cf9 ec72     +LDI R23 , BYTE4 ( 0xC2AEAC50 )
                 	__GETD1N 0xC2AEAC50
001cfa 940e 2072 	CALL __CMPF12
001cfc f428      	BRSH _0x202000F
                +
001cfd e0e0     +LDI R30 , LOW ( 0x0 )
001cfe e0f0     +LDI R31 , HIGH ( 0x0 )
001cff e060     +LDI R22 , BYTE3 ( 0x0 )
001d00 e070     +LDI R23 , BYTE4 ( 0x0 )
                 	__GETD1N 0x0
001d01 c0a7      	RJMP _0x20C0002
                 _0x202000F:
                +
001d02 85ea     +LDD R30 , Y + 10
001d03 85fb     +LDD R31 , Y + 10 + 1
001d04 856c     +LDD R22 , Y + 10 + 2
001d05 857d     +LDD R23 , Y + 10 + 3
                 	__GETD1S 10
001d06 940e 21c3 	CALL __CPD10
001d08 f429      	BRNE _0x2020010
                +
001d09 e0e0     +LDI R30 , LOW ( 0x3F800000 )
001d0a e0f0     +LDI R31 , HIGH ( 0x3F800000 )
001d0b e860     +LDI R22 , BYTE3 ( 0x3F800000 )
001d0c e37f     +LDI R23 , BYTE4 ( 0x3F800000 )
                 	__GETD1N 0x3F800000
001d0d c09b      	RJMP _0x20C0002
                 _0x2020010:
                +
001d0e 85aa     +LDD R26 , Y + 10
001d0f 85bb     +LDD R27 , Y + 10 + 1
001d10 858c     +LDD R24 , Y + 10 + 2
001d11 859d     +LDD R25 , Y + 10 + 3
                 	__GETD2S 10
                +
001d12 e1e8     +LDI R30 , LOW ( 0x42B17218 )
001d13 e7f2     +LDI R31 , HIGH ( 0x42B17218 )
001d14 eb61     +LDI R22 , BYTE3 ( 0x42B17218 )
001d15 e472     +LDI R23 , BYTE4 ( 0x42B17218 )
                 	__GETD1N 0x42B17218
001d16 940e 2072 	CALL __CMPF12
001d18 f009      	BREQ PC+2
001d19 f410      	BRCC PC+3
001d1a 940c 1d21 	JMP  _0x2020011
                +
001d1c efef     +LDI R30 , LOW ( 0x7F7FFFFF )
001d1d efff     +LDI R31 , HIGH ( 0x7F7FFFFF )
001d1e e76f     +LDI R22 , BYTE3 ( 0x7F7FFFFF )
001d1f e77f     +LDI R23 , BYTE4 ( 0x7F7FFFFF )
                 	__GETD1N 0x7F7FFFFF
001d20 c088      	RJMP _0x20C0002
                 _0x2020011:
                +
001d21 85aa     +LDD R26 , Y + 10
001d22 85bb     +LDD R27 , Y + 10 + 1
001d23 858c     +LDD R24 , Y + 10 + 2
001d24 859d     +LDD R25 , Y + 10 + 3
                 	__GETD2S 10
                +
001d25 e3eb     +LDI R30 , LOW ( 0x3FB8AA3B )
001d26 eafa     +LDI R31 , HIGH ( 0x3FB8AA3B )
001d27 eb68     +LDI R22 , BYTE3 ( 0x3FB8AA3B )
001d28 e37f     +LDI R23 , BYTE4 ( 0x3FB8AA3B )
                 	__GETD1N 0x3FB8AA3B
001d29 940e 1fdf 	CALL __MULF12
                +
001d2b 87ea     +STD Y + 10 , R30
001d2c 87fb     +STD Y + 10 + 1 , R31
001d2d 876c     +STD Y + 10 + 2 , R22
001d2e 877d     +STD Y + 10 + 3 , R23
                 	__PUTD1S 10
                +
001d2f 85aa     +LDD R26 , Y + 10
001d30 85bb     +LDD R27 , Y + 10 + 1
001d31 858c     +LDD R24 , Y + 10 + 2
001d32 859d     +LDD R25 , Y + 10 + 3
                 	__GETD2S 10
001d33 dee2      	RCALL _floor
001d34 940e 1f1e 	CALL __CFD1
001d36 018f      	MOVW R16,R30
001d37 01f8      	MOVW R30,R16
                +
001d38 85aa     +LDD R26 , Y + 10
001d39 85bb     +LDD R27 , Y + 10 + 1
001d3a 858c     +LDD R24 , Y + 10 + 2
001d3b 859d     +LDD R25 , Y + 10 + 3
                 	__GETD2S 10
001d3c 940e 20c6 	CALL __CWD1
001d3e 940e 1f55 	CALL __CDF1
001d40 940e 21ac 	CALL __SWAPD12
001d42 940e 1f88 	CALL __SUBF12
001d44 01df      	MOVW R26,R30
001d45 01cb      	MOVW R24,R22
                +
001d46 e0e0     +LDI R30 , LOW ( 0x3F000000 )
001d47 e0f0     +LDI R31 , HIGH ( 0x3F000000 )
001d48 e060     +LDI R22 , BYTE3 ( 0x3F000000 )
001d49 e37f     +LDI R23 , BYTE4 ( 0x3F000000 )
                 	__GETD1N 0x3F000000
001d4a 940e 21ac 	CALL __SWAPD12
001d4c 940e 1f88 	CALL __SUBF12
                +
001d4e 83ee     +STD Y + 6 , R30
001d4f 83ff     +STD Y + 6 + 1 , R31
001d50 8768     +STD Y + 6 + 2 , R22
001d51 8779     +STD Y + 6 + 3 , R23
                 	__PUTD1S 6
                +
001d52 81ae     +LDD R26 , Y + 6
001d53 81bf     +LDD R27 , Y + 6 + 1
001d54 8588     +LDD R24 , Y + 6 + 2
001d55 8599     +LDD R25 , Y + 6 + 3
                 	__GETD2S 6
001d56 940e 1fdf 	CALL __MULF12
                +
001d58 83ea     +STD Y + 2 , R30
001d59 83fb     +STD Y + 2 + 1 , R31
001d5a 836c     +STD Y + 2 + 2 , R22
001d5b 837d     +STD Y + 2 + 3 , R23
                 	__PUTD1S 2
                +
001d5c e6ad     +LDI R26 , LOW ( 0x3D6C4C6D )
001d5d e4bc     +LDI R27 , HIGH ( 0x3D6C4C6D )
001d5e e68c     +LDI R24 , BYTE3 ( 0x3D6C4C6D )
001d5f e39d     +LDI R25 , BYTE4 ( 0x3D6C4C6D )
                 	__GETD2N 0x3D6C4C6D
001d60 940e 1fdf 	CALL __MULF12
                +
001d62 eaa6     +LDI R26 , LOW ( 0x40E6E3A6 )
001d63 eeb3     +LDI R27 , HIGH ( 0x40E6E3A6 )
001d64 ee86     +LDI R24 , BYTE3 ( 0x40E6E3A6 )
001d65 e490     +LDI R25 , BYTE4 ( 0x40E6E3A6 )
                 	__GETD2N 0x40E6E3A6
001d66 940e 1f8f 	CALL __ADDF12
                +
001d68 81ae     +LDD R26 , Y + 6
001d69 81bf     +LDD R27 , Y + 6 + 1
001d6a 8588     +LDD R24 , Y + 6 + 2
001d6b 8599     +LDD R25 , Y + 6 + 3
                 	__GETD2S 6
001d6c 940e 1fdf 	CALL __MULF12
                +
001d6e 83ee     +STD Y + 6 , R30
001d6f 83ff     +STD Y + 6 + 1 , R31
001d70 8768     +STD Y + 6 + 2 , R22
001d71 8779     +STD Y + 6 + 3 , R23
                 	__PUTD1S 6
                +
001d72 81ea     +LDD R30 , Y + 2
001d73 81fb     +LDD R31 , Y + 2 + 1
001d74 816c     +LDD R22 , Y + 2 + 2
001d75 817d     +LDD R23 , Y + 2 + 3
                 	__GETD1S 2
                +
001d76 e2a8     +LDI R26 , LOW ( 0x41A68D28 )
001d77 e8bd     +LDI R27 , HIGH ( 0x41A68D28 )
001d78 ea86     +LDI R24 , BYTE3 ( 0x41A68D28 )
001d79 e491     +LDI R25 , BYTE4 ( 0x41A68D28 )
                 	__GETD2N 0x41A68D28
001d7a 940e 1f8f 	CALL __ADDF12
                +
001d7c 83ea     +STD Y + 2 , R30
001d7d 83fb     +STD Y + 2 + 1 , R31
001d7e 836c     +STD Y + 2 + 2 , R22
001d7f 837d     +STD Y + 2 + 3 , R23
                 	__PUTD1S 2
                +
001d80 81ee     +LDD R30 , Y + 6
001d81 81ff     +LDD R31 , Y + 6 + 1
001d82 8568     +LDD R22 , Y + 6 + 2
001d83 8579     +LDD R23 , Y + 6 + 3
                 	__GETD1S 6
                +
001d84 81aa     +LDD R26 , Y + 2
001d85 81bb     +LDD R27 , Y + 2 + 1
001d86 818c     +LDD R24 , Y + 2 + 2
001d87 819d     +LDD R25 , Y + 2 + 3
                 	__GETD2S 2
001d88 940e 1f8f 	CALL __ADDF12
                +
001d8a efa3     +LDI R26 , LOW ( 0x3FB504F3 )
001d8b e0b4     +LDI R27 , HIGH ( 0x3FB504F3 )
001d8c eb85     +LDI R24 , BYTE3 ( 0x3FB504F3 )
001d8d e39f     +LDI R25 , BYTE4 ( 0x3FB504F3 )
                 	__GETD2N 0x3FB504F3
001d8e 940e 1fdf 	CALL __MULF12
001d90 937f      	PUSH R23
001d91 936f      	PUSH R22
001d92 93ff      	PUSH R31
001d93 93ef      	PUSH R30
                +
001d94 81ae     +LDD R26 , Y + 6
001d95 81bf     +LDD R27 , Y + 6 + 1
001d96 8588     +LDD R24 , Y + 6 + 2
001d97 8599     +LDD R25 , Y + 6 + 3
                 	__GETD2S 6
                +
001d98 81ea     +LDD R30 , Y + 2
001d99 81fb     +LDD R31 , Y + 2 + 1
001d9a 816c     +LDD R22 , Y + 2 + 2
001d9b 817d     +LDD R23 , Y + 2 + 3
                 	__GETD1S 2
001d9c 940e 1f88 	CALL __SUBF12
001d9e 91af      	POP  R26
001d9f 91bf      	POP  R27
001da0 918f      	POP  R24
001da1 919f      	POP  R25
001da2 940e 202d 	CALL __DIVF21
001da4 940e 219a 	CALL __PUTPARD1
001da6 01d8      	MOVW R26,R16
001da7 940e 1edd 	CALL _ldexp
                 _0x20C0002:
001da9 8119      	LDD  R17,Y+1
001daa 8108      	LDD  R16,Y+0
001dab 962e      	ADIW R28,14
001dac 9508      	RET
                 _pow:
001dad 940e 219f 	CALL __PUTPARD2
001daf 9724      	SBIW R28,4
                +
001db0 85e8     +LDD R30 , Y + 8
001db1 85f9     +LDD R31 , Y + 8 + 1
001db2 856a     +LDD R22 , Y + 8 + 2
001db3 857b     +LDD R23 , Y + 8 + 3
                 	__GETD1S 8
001db4 940e 21c3 	CALL __CPD10
001db6 f431      	BRNE _0x2020012
                +
001db7 e0e0     +LDI R30 , LOW ( 0x0 )
001db8 e0f0     +LDI R31 , HIGH ( 0x0 )
001db9 e060     +LDI R22 , BYTE3 ( 0x0 )
001dba e070     +LDI R23 , BYTE4 ( 0x0 )
                 	__GETD1N 0x0
001dbb 940c 1ec0 	JMP  _0x20C0001
                 _0x2020012:
                +
001dbd 85a8     +LDD R26 , Y + 8
001dbe 85b9     +LDD R27 , Y + 8 + 1
001dbf 858a     +LDD R24 , Y + 8 + 2
001dc0 859b     +LDD R25 , Y + 8 + 3
                 	__GETD2S 8
001dc1 940e 21c7 	CALL __CPD02
001dc3 f4ec      	BRGE _0x2020013
                +
001dc4 81ec     +LDD R30 , Y + 4
001dc5 81fd     +LDD R31 , Y + 4 + 1
001dc6 816e     +LDD R22 , Y + 4 + 2
001dc7 817f     +LDD R23 , Y + 4 + 3
                 	__GETD1S 4
001dc8 940e 21c3 	CALL __CPD10
001dca f431      	BRNE _0x2020014
                +
001dcb e0e0     +LDI R30 , LOW ( 0x3F800000 )
001dcc e0f0     +LDI R31 , HIGH ( 0x3F800000 )
001dcd e860     +LDI R22 , BYTE3 ( 0x3F800000 )
001dce e37f     +LDI R23 , BYTE4 ( 0x3F800000 )
                 	__GETD1N 0x3F800000
001dcf 940c 1ec0 	JMP  _0x20C0001
                 _0x2020014:
                +
001dd1 85a8     +LDD R26 , Y + 8
001dd2 85b9     +LDD R27 , Y + 8 + 1
001dd3 858a     +LDD R24 , Y + 8 + 2
001dd4 859b     +LDD R25 , Y + 8 + 3
                 	__GETD2S 8
001dd5 de56      	RCALL _log
                +
001dd6 81ac     +LDD R26 , Y + 4
001dd7 81bd     +LDD R27 , Y + 4 + 1
001dd8 818e     +LDD R24 , Y + 4 + 2
001dd9 819f     +LDD R25 , Y + 4 + 3
                 	__GETD2S 4
001dda 940e 1fdf 	CALL __MULF12
001ddc 01df      	MOVW R26,R30
001ddd 01cb      	MOVW R24,R22
001dde df0e      	RCALL _exp
001ddf 940c 1ec0 	JMP  _0x20C0001
                 _0x2020013:
                +
001de1 81ec     +LDD R30 , Y + 4
001de2 81fd     +LDD R31 , Y + 4 + 1
001de3 816e     +LDD R22 , Y + 4 + 2
001de4 817f     +LDD R23 , Y + 4 + 3
                 	__GETD1S 4
001de5 01de      	MOVW R26,R28
001de6 940e 1f1e 	CALL __CFD1
001de8 940e 2177 	CALL __PUTDP1
001dea 940e 2186 	CALL __GETD1S0
001dec 940e 1f55 	CALL __CDF1
001dee 01df      	MOVW R26,R30
001def 01cb      	MOVW R24,R22
                +
001df0 81ec     +LDD R30 , Y + 4
001df1 81fd     +LDD R31 , Y + 4 + 1
001df2 816e     +LDD R22 , Y + 4 + 2
001df3 817f     +LDD R23 , Y + 4 + 3
                 	__GETD1S 4
001df4 940e 21cd 	CALL __CPD12
001df6 f031      	BREQ _0x2020015
                +
001df7 e0e0     +LDI R30 , LOW ( 0x0 )
001df8 e0f0     +LDI R31 , HIGH ( 0x0 )
001df9 e060     +LDI R22 , BYTE3 ( 0x0 )
001dfa e070     +LDI R23 , BYTE4 ( 0x0 )
                 	__GETD1N 0x0
001dfb 940c 1ec0 	JMP  _0x20C0001
                 _0x2020015:
                +
001dfd 85e8     +LDD R30 , Y + 8
001dfe 85f9     +LDD R31 , Y + 8 + 1
001dff 856a     +LDD R22 , Y + 8 + 2
001e00 857b     +LDD R23 , Y + 8 + 3
                 	__GETD1S 8
001e01 940e 1ee9 	CALL __ANEGF1
001e03 01df      	MOVW R26,R30
001e04 01cb      	MOVW R24,R22
001e05 de26      	RCALL _log
                +
001e06 81ac     +LDD R26 , Y + 4
001e07 81bd     +LDD R27 , Y + 4 + 1
001e08 818e     +LDD R24 , Y + 4 + 2
001e09 819f     +LDD R25 , Y + 4 + 3
                 	__GETD2S 4
001e0a 940e 1fdf 	CALL __MULF12
001e0c 01df      	MOVW R26,R30
001e0d 01cb      	MOVW R24,R22
001e0e dede      	RCALL _exp
                +
001e0f 87e8     +STD Y + 8 , R30
001e10 87f9     +STD Y + 8 + 1 , R31
001e11 876a     +STD Y + 8 + 2 , R22
001e12 877b     +STD Y + 8 + 3 , R23
                 	__PUTD1S 8
001e13 81e8      	LD   R30,Y
001e14 70e1      	ANDI R30,LOW(0x1)
001e15 f431      	BRNE _0x2020016
                +
001e16 85e8     +LDD R30 , Y + 8
001e17 85f9     +LDD R31 , Y + 8 + 1
001e18 856a     +LDD R22 , Y + 8 + 2
001e19 857b     +LDD R23 , Y + 8 + 3
                 	__GETD1S 8
001e1a 940c 1ec0 	JMP  _0x20C0001
                 _0x2020016:
                +
001e1c 85e8     +LDD R30 , Y + 8
001e1d 85f9     +LDD R31 , Y + 8 + 1
001e1e 856a     +LDD R22 , Y + 8 + 2
001e1f 857b     +LDD R23 , Y + 8 + 3
                 	__GETD1S 8
001e20 940e 1ee9 	CALL __ANEGF1
001e22 940c 1ec0 	JMP  _0x20C0001
                 
                 	.CSEG
                 _itoa:
001e24 93ba      	ST   -Y,R27
001e25 93aa      	ST   -Y,R26
001e26 91a9          ld   r26,y+
001e27 91b9          ld   r27,y+
001e28 91e9          ld   r30,y+
001e29 91f9          ld   r31,y+
001e2a 9630          adiw r30,0
001e2b f42a          brpl __itoa0
001e2c 95e0          com  r30
001e2d 95f0          com  r31
001e2e 9631          adiw r30,1
001e2f e26d          ldi  r22,'-'
001e30 936d          st   x+,r22
                 __itoa0:
001e31 94e8          clt
001e32 e180          ldi  r24,low(10000)
001e33 e297          ldi  r25,high(10000)
001e34 d00d          rcall __itoa1
001e35 ee88          ldi  r24,low(1000)
001e36 e093          ldi  r25,high(1000)
001e37 d00a          rcall __itoa1
001e38 e684          ldi  r24,100
001e39 2799          clr  r25
001e3a d007          rcall __itoa1
001e3b e08a          ldi  r24,10
001e3c d005          rcall __itoa1
001e3d 2f6e          mov  r22,r30
001e3e d010          rcall __itoa5
001e3f 2766          clr  r22
001e40 936c          st   x,r22
001e41 9508          ret
                 
                 __itoa1:
001e42 2766          clr	 r22
                 __itoa2:
001e43 17e8          cp   r30,r24
001e44 07f9          cpc  r31,r25
001e45 f020          brlo __itoa3
001e46 9563          inc  r22
001e47 1be8          sub  r30,r24
001e48 0bf9          sbc  r31,r25
001e49 f7c9          brne __itoa2
                 __itoa3:
001e4a 2366          tst  r22
001e4b f411          brne __itoa4
001e4c f016          brts __itoa5
001e4d 9508          ret
                 __itoa4:
001e4e 9468          set
                 __itoa5:
001e4f 5d60          subi r22,-0x30
001e50 936d          st   x+,r22
001e51 9508          ret
                 _ltoa:
001e52 93ba      	ST   -Y,R27
001e53 93aa      	ST   -Y,R26
001e54 9724      	SBIW R28,4
001e55 931a      	ST   -Y,R17
001e56 930a      	ST   -Y,R16
                +
001e57 e0e0     +LDI R30 , LOW ( 0x3B9ACA00 )
001e58 ecfa     +LDI R31 , HIGH ( 0x3B9ACA00 )
001e59 e96a     +LDI R22 , BYTE3 ( 0x3B9ACA00 )
001e5a e37b     +LDI R23 , BYTE4 ( 0x3B9ACA00 )
                 	__GETD1N 0x3B9ACA00
                +
001e5b 83ea     +STD Y + 2 , R30
001e5c 83fb     +STD Y + 2 + 1 , R31
001e5d 836c     +STD Y + 2 + 2 , R22
001e5e 837d     +STD Y + 2 + 3 , R23
                 	__PUTD1S 2
001e5f e000      	LDI  R16,LOW(0)
001e60 85ab      	LDD  R26,Y+11
001e61 23aa      	TST  R26
001e62 f492      	BRPL _0x2040003
                +
001e63 85e8     +LDD R30 , Y + 8
001e64 85f9     +LDD R31 , Y + 8 + 1
001e65 856a     +LDD R22 , Y + 8 + 2
001e66 857b     +LDD R23 , Y + 8 + 3
                 	__GETD1S 8
001e67 940e 20a0 	CALL __ANEGD1
                +
001e69 87e8     +STD Y + 8 , R30
001e6a 87f9     +STD Y + 8 + 1 , R31
001e6b 876a     +STD Y + 8 + 2 , R22
001e6c 877b     +STD Y + 8 + 3 , R23
                 	__PUTD1S 8
001e6d 81ae      	LDD  R26,Y+6
001e6e 81bf      	LDD  R27,Y+6+1
001e6f 9611      	ADIW R26,1
001e70 83ae      	STD  Y+6,R26
001e71 83bf      	STD  Y+6+1,R27
001e72 9711      	SBIW R26,1
001e73 e2ed      	LDI  R30,LOW(45)
001e74 93ec      	ST   X,R30
                 _0x2040003:
                 _0x2040005:
                +
001e75 81ea     +LDD R30 , Y + 2
001e76 81fb     +LDD R31 , Y + 2 + 1
001e77 816c     +LDD R22 , Y + 2 + 2
001e78 817d     +LDD R23 , Y + 2 + 3
                 	__GETD1S 2
                +
001e79 85a8     +LDD R26 , Y + 8
001e7a 85b9     +LDD R27 , Y + 8 + 1
001e7b 858a     +LDD R24 , Y + 8 + 2
001e7c 859b     +LDD R25 , Y + 8 + 3
                 	__GETD2S 8
001e7d 940e 2110 	CALL __DIVD21U
001e7f 2f1e      	MOV  R17,R30
001e80 3010      	CPI  R17,0
001e81 f471      	BRNE _0x2040008
001e82 3000      	CPI  R16,0
001e83 f461      	BRNE _0x2040008
                +
001e84 81aa     +LDD R26 , Y + 2
001e85 81bb     +LDD R27 , Y + 2 + 1
001e86 818c     +LDD R24 , Y + 2 + 2
001e87 819d     +LDD R25 , Y + 2 + 3
                 	__GETD2S 2
                +
001e88 30a1     +CPI R26 , LOW ( 0x1 )
001e89 e0e0     +LDI R30 , HIGH ( 0x1 )
001e8a 07be     +CPC R27 , R30
001e8b e0e0     +LDI R30 , BYTE3 ( 0x1 )
001e8c 078e     +CPC R24 , R30
001e8d e0e0     +LDI R30 , BYTE4 ( 0x1 )
001e8e 079e     +CPC R25 , R30
                 	__CPD2N 0x1
001e8f f451      	BRNE _0x2040007
                 _0x2040008:
001e90 81ae      	LDD  R26,Y+6
001e91 81bf      	LDD  R27,Y+6+1
001e92 9611      	ADIW R26,1
001e93 83ae      	STD  Y+6,R26
001e94 83bf      	STD  Y+6+1,R27
001e95 9711      	SBIW R26,1
001e96 2fe1      	MOV  R30,R17
001e97 5de0      	SUBI R30,-LOW(48)
001e98 93ec      	ST   X,R30
001e99 e001      	LDI  R16,LOW(1)
                 _0x2040007:
                +
001e9a 81ea     +LDD R30 , Y + 2
001e9b 81fb     +LDD R31 , Y + 2 + 1
001e9c 816c     +LDD R22 , Y + 2 + 2
001e9d 817d     +LDD R23 , Y + 2 + 3
                 	__GETD1S 2
                +
001e9e 85a8     +LDD R26 , Y + 8
001e9f 85b9     +LDD R27 , Y + 8 + 1
001ea0 858a     +LDD R24 , Y + 8 + 2
001ea1 859b     +LDD R25 , Y + 8 + 3
                 	__GETD2S 8
001ea2 940e 2148 	CALL __MODD21U
                +
001ea4 87e8     +STD Y + 8 , R30
001ea5 87f9     +STD Y + 8 + 1 , R31
001ea6 876a     +STD Y + 8 + 2 , R22
001ea7 877b     +STD Y + 8 + 3 , R23
                 	__PUTD1S 8
                +
001ea8 81aa     +LDD R26 , Y + 2
001ea9 81bb     +LDD R27 , Y + 2 + 1
001eaa 818c     +LDD R24 , Y + 2 + 2
001eab 819d     +LDD R25 , Y + 2 + 3
                 	__GETD2S 2
                +
001eac e0ea     +LDI R30 , LOW ( 0xA )
001ead e0f0     +LDI R31 , HIGH ( 0xA )
001eae e060     +LDI R22 , BYTE3 ( 0xA )
001eaf e070     +LDI R23 , BYTE4 ( 0xA )
                 	__GETD1N 0xA
001eb0 940e 2110 	CALL __DIVD21U
                +
001eb2 83ea     +STD Y + 2 , R30
001eb3 83fb     +STD Y + 2 + 1 , R31
001eb4 836c     +STD Y + 2 + 2 , R22
001eb5 837d     +STD Y + 2 + 3 , R23
                 	__PUTD1S 2
001eb6 940e 21c3 	CALL __CPD10
001eb8 f009      	BREQ _0x2040006
001eb9 cfbb      	RJMP _0x2040005
                 _0x2040006:
001eba 81ae      	LDD  R26,Y+6
001ebb 81bf      	LDD  R27,Y+6+1
001ebc e0e0      	LDI  R30,LOW(0)
001ebd 93ec      	ST   X,R30
001ebe 8119      	LDD  R17,Y+1
001ebf 8108      	LDD  R16,Y+0
                 _0x20C0001:
001ec0 962c      	ADIW R28,12
001ec1 9508      	RET
                 
                 	.DSEG
                 
                 	.CSEG
                 
                 	.CSEG
                 
                 	.CSEG
                 
                 	.CSEG
                 
                 	.DSEG
                 _fft_adc:
002800           	.BYTE 0x1000
                 _dac_inputs_min:
003800           	.BYTE 0x100
                 _dac_inputs_max:
003900           	.BYTE 0x100
                 _state_S000001D000:
003a00           	.BYTE 0x1
                 _x_val_S000001D000:
003a01           	.BYTE 0x2
                 _y_val_S000001D000:
003a03           	.BYTE 0x2
                 _key_row_pos:
003a05           	.BYTE 0x1
                 _key_pos:
003a06           	.BYTE 0x1
                 _key:
003a07           	.BYTE 0x1
                 _next_menu_state:
003a08           	.BYTE 0x1
                 _current_menu_state:
003a09           	.BYTE 0x1
                 _number_input_number_cntr_G000:
003a0a           	.BYTE 0x1
                 _number_S0000020000:
003a0b           	.BYTE 0x2
                 _abs_to_dac_coeff0:
003a0d           	.BYTE 0x4
                 _abs_to_dac_coeff1:
003a11           	.BYTE 0x4
                 _oscope_min:
003a15           	.BYTE 0x4
                 _oscope_div:
003a19           	.BYTE 0x4
                 _next_unit:
003a1d           	.BYTE 0x1
                 _current_unit:
003a1e           	.BYTE 0x1
                 _gain_index:
003a1f           	.BYTE 0x1
                 _next_gain_index:
003a20           	.BYTE 0x1
                 __base_y_G100:
003a21           	.BYTE 0x4
                 __lcd_x:
003a25           	.BYTE 0x1
                 __lcd_y:
003a26           	.BYTE 0x1
                 __lcd_maxx:
003a27           	.BYTE 0x1
                 __seed_G102:
003a28           	.BYTE 0x4
                 
                 	.CSEG
                 
                 	.CSEG
                 _delay_ms:
001ec2 9610      	adiw r26,0
001ec3 f039      	breq __delay_ms1
                 __delay_ms0:
                +
001ec4 e480     +LDI R24 , LOW ( 0x1F40 )
001ec5 e19f     +LDI R25 , HIGH ( 0x1F40 )
                +__DELAY_USW_LOOP :
001ec6 9701     +SBIW R24 , 1
001ec7 f7f1     +BRNE __DELAY_USW_LOOP
                 	__DELAY_USW 0x1F40
001ec8 95a8      	wdr
001ec9 9711      	sbiw r26,1
001eca f7c9      	brne __delay_ms0
                 __delay_ms1:
001ecb 9508      	ret
                 
                 _frexp:
001ecc 91e9      	LD   R30,Y+
001ecd 91f9      	LD   R31,Y+
001ece 9169      	LD   R22,Y+
001ecf 9179      	LD   R23,Y+
001ed0 fb77      	BST  R23,7
001ed1 0f66      	LSL  R22
001ed2 1f77      	ROL  R23
001ed3 2788      	CLR  R24
001ed4 577e      	SUBI R23,0x7E
001ed5 0b88      	SBC  R24,R24
001ed6 937d      	ST   X+,R23
001ed7 938c      	ST   X,R24
001ed8 e77e      	LDI  R23,0x7E
001ed9 9576      	LSR  R23
001eda 9567      	ROR  R22
001edb f06e      	BRTS __ANEGF1
001edc 9508      	RET
                 
                 _ldexp:
001edd 91e9      	LD   R30,Y+
001ede 91f9      	LD   R31,Y+
001edf 9169      	LD   R22,Y+
001ee0 9179      	LD   R23,Y+
001ee1 fb77      	BST  R23,7
001ee2 0f66      	LSL  R22
001ee3 1f77      	ROL  R23
001ee4 0f7a      	ADD  R23,R26
001ee5 9576      	LSR  R23
001ee6 9567      	ROR  R22
001ee7 f00e      	BRTS __ANEGF1
001ee8 9508      	RET
                 
                 __ANEGF1:
001ee9 9730      	SBIW R30,0
001eea 4060      	SBCI R22,0
001eeb 4070      	SBCI R23,0
001eec f009      	BREQ __ANEGF10
001eed 5870      	SUBI R23,0x80
                 __ANEGF10:
001eee 9508      	RET
                 
                 __ROUND_REPACK:
001eef 2355      	TST  R21
001ef0 f442      	BRPL __REPACK
001ef1 3850      	CPI  R21,0x80
001ef2 f411      	BRNE __ROUND_REPACK0
001ef3 ffe0      	SBRS R30,0
001ef4 c004      	RJMP __REPACK
                 __ROUND_REPACK0:
001ef5 9631      	ADIW R30,1
001ef6 1f69      	ADC  R22,R25
001ef7 1f79      	ADC  R23,R25
001ef8 f06b      	BRVS __REPACK1
                 
                 __REPACK:
001ef9 e850      	LDI  R21,0x80
001efa 2757      	EOR  R21,R23
001efb f411      	BRNE __REPACK0
001efc 935f      	PUSH R21
001efd c0cf      	RJMP __ZERORES
                 __REPACK0:
001efe 3f5f      	CPI  R21,0xFF
001eff f031      	BREQ __REPACK1
001f00 0f66      	LSL  R22
001f01 0c00      	LSL  R0
001f02 9557      	ROR  R21
001f03 9567      	ROR  R22
001f04 2f75      	MOV  R23,R21
001f05 9508      	RET
                 __REPACK1:
001f06 935f      	PUSH R21
001f07 2000      	TST  R0
001f08 f00a      	BRMI __REPACK2
001f09 c0cf      	RJMP __MAXRES
                 __REPACK2:
001f0a c0c8      	RJMP __MINRES
                 
                 __UNPACK:
001f0b e850      	LDI  R21,0x80
001f0c 2e19      	MOV  R1,R25
001f0d 2215      	AND  R1,R21
001f0e 0f88      	LSL  R24
001f0f 1f99      	ROL  R25
001f10 2795      	EOR  R25,R21
001f11 0f55      	LSL  R21
001f12 9587      	ROR  R24
                 
                 __UNPACK1:
001f13 e850      	LDI  R21,0x80
001f14 2e07      	MOV  R0,R23
001f15 2205      	AND  R0,R21
001f16 0f66      	LSL  R22
001f17 1f77      	ROL  R23
001f18 2775      	EOR  R23,R21
001f19 0f55      	LSL  R21
001f1a 9567      	ROR  R22
001f1b 9508      	RET
                 
                 __CFD1U:
001f1c 9468      	SET
001f1d c001      	RJMP __CFD1U0
                 __CFD1:
001f1e 94e8      	CLT
                 __CFD1U0:
001f1f 935f      	PUSH R21
001f20 dff2      	RCALL __UNPACK1
001f21 3870      	CPI  R23,0x80
001f22 f018      	BRLO __CFD10
001f23 3f7f      	CPI  R23,0xFF
001f24 f408      	BRCC __CFD10
001f25 c0a7      	RJMP __ZERORES
                 __CFD10:
001f26 e156      	LDI  R21,22
001f27 1b57      	SUB  R21,R23
001f28 f4aa      	BRPL __CFD11
001f29 9551      	NEG  R21
001f2a 3058      	CPI  R21,8
001f2b f40e      	BRTC __CFD19
001f2c 3059      	CPI  R21,9
                 __CFD19:
001f2d f030      	BRLO __CFD17
001f2e efef      	SER  R30
001f2f efff      	SER  R31
001f30 ef6f      	SER  R22
001f31 e77f      	LDI  R23,0x7F
001f32 f977      	BLD  R23,7
001f33 c01a      	RJMP __CFD15
                 __CFD17:
001f34 2777      	CLR  R23
001f35 2355      	TST  R21
001f36 f0b9      	BREQ __CFD15
                 __CFD18:
001f37 0fee      	LSL  R30
001f38 1fff      	ROL  R31
001f39 1f66      	ROL  R22
001f3a 1f77      	ROL  R23
001f3b 955a      	DEC  R21
001f3c f7d1      	BRNE __CFD18
001f3d c010      	RJMP __CFD15
                 __CFD11:
001f3e 2777      	CLR  R23
                 __CFD12:
001f3f 3058      	CPI  R21,8
001f40 f028      	BRLO __CFD13
001f41 2fef      	MOV  R30,R31
001f42 2ff6      	MOV  R31,R22
001f43 2f67      	MOV  R22,R23
001f44 5058      	SUBI R21,8
001f45 cff9      	RJMP __CFD12
                 __CFD13:
001f46 2355      	TST  R21
001f47 f031      	BREQ __CFD15
                 __CFD14:
001f48 9576      	LSR  R23
001f49 9567      	ROR  R22
001f4a 95f7      	ROR  R31
001f4b 95e7      	ROR  R30
001f4c 955a      	DEC  R21
001f4d f7d1      	BRNE __CFD14
                 __CFD15:
001f4e 2000      	TST  R0
001f4f f40a      	BRPL __CFD16
001f50 d14f      	RCALL __ANEGD1
                 __CFD16:
001f51 915f      	POP  R21
001f52 9508      	RET
                 
                 __CDF1U:
001f53 9468      	SET
001f54 c001      	RJMP __CDF1U0
                 __CDF1:
001f55 94e8      	CLT
                 __CDF1U0:
001f56 9730      	SBIW R30,0
001f57 4060      	SBCI R22,0
001f58 4070      	SBCI R23,0
001f59 f0b1      	BREQ __CDF10
001f5a 2400      	CLR  R0
001f5b f026      	BRTS __CDF11
001f5c 2377      	TST  R23
001f5d f412      	BRPL __CDF11
001f5e 9400      	COM  R0
001f5f d140      	RCALL __ANEGD1
                 __CDF11:
001f60 2e17      	MOV  R1,R23
001f61 e17e      	LDI  R23,30
001f62 2011      	TST  R1
                 __CDF12:
001f63 f032      	BRMI __CDF13
001f64 957a      	DEC  R23
001f65 0fee      	LSL  R30
001f66 1fff      	ROL  R31
001f67 1f66      	ROL  R22
001f68 1c11      	ROL  R1
001f69 cff9      	RJMP __CDF12
                 __CDF13:
001f6a 2fef      	MOV  R30,R31
001f6b 2ff6      	MOV  R31,R22
001f6c 2d61      	MOV  R22,R1
001f6d 935f      	PUSH R21
001f6e df8a      	RCALL __REPACK
001f6f 915f      	POP  R21
                 __CDF10:
001f70 9508      	RET
                 
                 __SWAPACC:
001f71 934f      	PUSH R20
001f72 01af      	MOVW R20,R30
001f73 01fd      	MOVW R30,R26
001f74 01da      	MOVW R26,R20
001f75 01ab      	MOVW R20,R22
001f76 01bc      	MOVW R22,R24
001f77 01ca      	MOVW R24,R20
001f78 2d40      	MOV  R20,R0
001f79 2c01      	MOV  R0,R1
001f7a 2e14      	MOV  R1,R20
001f7b 914f      	POP  R20
001f7c 9508      	RET
                 
                 __UADD12:
001f7d 0fea      	ADD  R30,R26
001f7e 1ffb      	ADC  R31,R27
001f7f 1f68      	ADC  R22,R24
001f80 9508      	RET
                 
                 __NEGMAN1:
001f81 95e0      	COM  R30
001f82 95f0      	COM  R31
001f83 9560      	COM  R22
001f84 5fef      	SUBI R30,-1
001f85 4fff      	SBCI R31,-1
001f86 4f6f      	SBCI R22,-1
001f87 9508      	RET
                 
                 __SUBF12:
001f88 935f      	PUSH R21
001f89 df81      	RCALL __UNPACK
001f8a 3890      	CPI  R25,0x80
001f8b f171      	BREQ __ADDF129
001f8c e850      	LDI  R21,0x80
001f8d 2615      	EOR  R1,R21
                 
001f8e c004      	RJMP __ADDF120
                 
                 __ADDF12:
001f8f 935f      	PUSH R21
001f90 df7a      	RCALL __UNPACK
001f91 3890      	CPI  R25,0x80
001f92 f139      	BREQ __ADDF129
                 
                 __ADDF120:
001f93 3870      	CPI  R23,0x80
001f94 f121      	BREQ __ADDF128
                 __ADDF121:
001f95 2f57      	MOV  R21,R23
001f96 1b59      	SUB  R21,R25
001f97 f12b      	BRVS __ADDF1211
001f98 f412      	BRPL __ADDF122
001f99 dfd7      	RCALL __SWAPACC
001f9a cffa      	RJMP __ADDF121
                 __ADDF122:
001f9b 3158      	CPI  R21,24
001f9c f018      	BRLO __ADDF123
001f9d 27aa      	CLR  R26
001f9e 27bb      	CLR  R27
001f9f 2788      	CLR  R24
                 __ADDF123:
001fa0 3058      	CPI  R21,8
001fa1 f028      	BRLO __ADDF124
001fa2 2fab      	MOV  R26,R27
001fa3 2fb8      	MOV  R27,R24
001fa4 2788      	CLR  R24
001fa5 5058      	SUBI R21,8
001fa6 cff9      	RJMP __ADDF123
                 __ADDF124:
001fa7 2355      	TST  R21
001fa8 f029      	BREQ __ADDF126
                 __ADDF125:
001fa9 9586      	LSR  R24
001faa 95b7      	ROR  R27
001fab 95a7      	ROR  R26
001fac 955a      	DEC  R21
001fad f7d9      	BRNE __ADDF125
                 __ADDF126:
001fae 2d50      	MOV  R21,R0
001faf 2551      	EOR  R21,R1
001fb0 f072      	BRMI __ADDF127
001fb1 dfcb      	RCALL __UADD12
001fb2 f438      	BRCC __ADDF129
001fb3 9567      	ROR  R22
001fb4 95f7      	ROR  R31
001fb5 95e7      	ROR  R30
001fb6 9573      	INC  R23
001fb7 f413      	BRVC __ADDF129
001fb8 c020      	RJMP __MAXRES
                 __ADDF128:
001fb9 dfb7      	RCALL __SWAPACC
                 __ADDF129:
001fba df3e      	RCALL __REPACK
001fbb 915f      	POP  R21
001fbc 9508      	RET
                 __ADDF1211:
001fbd f7d8      	BRCC __ADDF128
001fbe cffb      	RJMP __ADDF129
                 __ADDF127:
001fbf 1bea      	SUB  R30,R26
001fc0 0bfb      	SBC  R31,R27
001fc1 0b68      	SBC  R22,R24
001fc2 f051      	BREQ __ZERORES
001fc3 f410      	BRCC __ADDF1210
001fc4 9400      	COM  R0
001fc5 dfbb      	RCALL __NEGMAN1
                 __ADDF1210:
001fc6 2366      	TST  R22
001fc7 f392      	BRMI __ADDF129
001fc8 0fee      	LSL  R30
001fc9 1fff      	ROL  R31
001fca 1f66      	ROL  R22
001fcb 957a      	DEC  R23
001fcc f7cb      	BRVC __ADDF1210
                 
                 __ZERORES:
001fcd 27ee      	CLR  R30
001fce 27ff      	CLR  R31
001fcf 2766      	CLR  R22
001fd0 2777      	CLR  R23
001fd1 915f      	POP  R21
001fd2 9508      	RET
                 
                 __MINRES:
001fd3 efef      	SER  R30
001fd4 efff      	SER  R31
001fd5 e76f      	LDI  R22,0x7F
001fd6 ef7f      	SER  R23
001fd7 915f      	POP  R21
001fd8 9508      	RET
                 
                 __MAXRES:
001fd9 efef      	SER  R30
001fda efff      	SER  R31
001fdb e76f      	LDI  R22,0x7F
001fdc e77f      	LDI  R23,0x7F
001fdd 915f      	POP  R21
001fde 9508      	RET
                 
                 __MULF12:
001fdf 935f      	PUSH R21
001fe0 df2a      	RCALL __UNPACK
001fe1 3870      	CPI  R23,0x80
001fe2 f351      	BREQ __ZERORES
001fe3 3890      	CPI  R25,0x80
001fe4 f341      	BREQ __ZERORES
001fe5 2401      	EOR  R0,R1
001fe6 9408      	SEC
001fe7 1f79      	ADC  R23,R25
001fe8 f423      	BRVC __MULF124
001fe9 f31c      	BRLT __ZERORES
                 __MULF125:
001fea 2000      	TST  R0
001feb f33a      	BRMI __MINRES
001fec cfec      	RJMP __MAXRES
                 __MULF124:
001fed 920f      	PUSH R0
001fee 931f      	PUSH R17
001fef 932f      	PUSH R18
001ff0 933f      	PUSH R19
001ff1 934f      	PUSH R20
001ff2 2711      	CLR  R17
001ff3 2722      	CLR  R18
001ff4 2799      	CLR  R25
001ff5 9f68      	MUL  R22,R24
001ff6 01a0      	MOVW R20,R0
001ff7 9f8f      	MUL  R24,R31
001ff8 2d30      	MOV  R19,R0
001ff9 0d41      	ADD  R20,R1
001ffa 1f59      	ADC  R21,R25
001ffb 9f6b      	MUL  R22,R27
001ffc 0d30      	ADD  R19,R0
001ffd 1d41      	ADC  R20,R1
001ffe 1f59      	ADC  R21,R25
001fff 9f8e      	MUL  R24,R30
002000 d027      	RCALL __MULF126
002001 9fbf      	MUL  R27,R31
002002 d025      	RCALL __MULF126
002003 9f6a      	MUL  R22,R26
002004 d023      	RCALL __MULF126
002005 9fbe      	MUL  R27,R30
002006 d01d      	RCALL __MULF127
002007 9faf      	MUL  R26,R31
002008 d01b      	RCALL __MULF127
002009 9fae      	MUL  R26,R30
00200a 0d11      	ADD  R17,R1
00200b 1f29      	ADC  R18,R25
00200c 1f39      	ADC  R19,R25
00200d 1f49      	ADC  R20,R25
00200e 1f59      	ADC  R21,R25
00200f 2fe3      	MOV  R30,R19
002010 2ff4      	MOV  R31,R20
002011 2f65      	MOV  R22,R21
002012 2f52      	MOV  R21,R18
002013 914f      	POP  R20
002014 913f      	POP  R19
002015 912f      	POP  R18
002016 911f      	POP  R17
002017 900f      	POP  R0
002018 2366      	TST  R22
002019 f02a      	BRMI __MULF122
00201a 0f55      	LSL  R21
00201b 1fee      	ROL  R30
00201c 1fff      	ROL  R31
00201d 1f66      	ROL  R22
00201e c002      	RJMP __MULF123
                 __MULF122:
00201f 9573      	INC  R23
002020 f24b      	BRVS __MULF125
                 __MULF123:
002021 decd      	RCALL __ROUND_REPACK
002022 915f      	POP  R21
002023 9508      	RET
                 
                 __MULF127:
002024 0d10      	ADD  R17,R0
002025 1d21      	ADC  R18,R1
002026 1f39      	ADC  R19,R25
002027 c002      	RJMP __MULF128
                 __MULF126:
002028 0d20      	ADD  R18,R0
002029 1d31      	ADC  R19,R1
                 __MULF128:
00202a 1f49      	ADC  R20,R25
00202b 1f59      	ADC  R21,R25
00202c 9508      	RET
                 
                 __DIVF21:
00202d 935f      	PUSH R21
00202e dedc      	RCALL __UNPACK
00202f 3870      	CPI  R23,0x80
002030 f421      	BRNE __DIVF210
002031 2011      	TST  R1
                 __DIVF211:
002032 f40a      	BRPL __DIVF219
002033 cf9f      	RJMP __MINRES
                 __DIVF219:
002034 cfa4      	RJMP __MAXRES
                 __DIVF210:
002035 3890      	CPI  R25,0x80
002036 f409      	BRNE __DIVF218
                 __DIVF217:
002037 cf95      	RJMP __ZERORES
                 __DIVF218:
002038 2401      	EOR  R0,R1
002039 9408      	SEC
00203a 0b97      	SBC  R25,R23
00203b f41b      	BRVC __DIVF216
00203c f3d4      	BRLT __DIVF217
00203d 2000      	TST  R0
00203e cff3      	RJMP __DIVF211
                 __DIVF216:
00203f 2f79      	MOV  R23,R25
002040 931f      	PUSH R17
002041 932f      	PUSH R18
002042 933f      	PUSH R19
002043 934f      	PUSH R20
002044 2411      	CLR  R1
002045 2711      	CLR  R17
002046 2722      	CLR  R18
002047 2733      	CLR  R19
002048 2744      	CLR  R20
002049 2755      	CLR  R21
00204a e290      	LDI  R25,32
                 __DIVF212:
00204b 17ae      	CP   R26,R30
00204c 07bf      	CPC  R27,R31
00204d 0786      	CPC  R24,R22
00204e 0741      	CPC  R20,R17
00204f f030      	BRLO __DIVF213
002050 1bae      	SUB  R26,R30
002051 0bbf      	SBC  R27,R31
002052 0b86      	SBC  R24,R22
002053 0b41      	SBC  R20,R17
002054 9408      	SEC
002055 c001      	RJMP __DIVF214
                 __DIVF213:
002056 9488      	CLC
                 __DIVF214:
002057 1f55      	ROL  R21
002058 1f22      	ROL  R18
002059 1f33      	ROL  R19
00205a 1c11      	ROL  R1
00205b 1faa      	ROL  R26
00205c 1fbb      	ROL  R27
00205d 1f88      	ROL  R24
00205e 1f44      	ROL  R20
00205f 959a      	DEC  R25
002060 f751      	BRNE __DIVF212
002061 01f9      	MOVW R30,R18
002062 2d61      	MOV  R22,R1
002063 914f      	POP  R20
002064 913f      	POP  R19
002065 912f      	POP  R18
002066 911f      	POP  R17
002067 2366      	TST  R22
002068 f032      	BRMI __DIVF215
002069 0f55      	LSL  R21
00206a 1fee      	ROL  R30
00206b 1fff      	ROL  R31
00206c 1f66      	ROL  R22
00206d 957a      	DEC  R23
00206e f243      	BRVS __DIVF217
                 __DIVF215:
00206f de7f      	RCALL __ROUND_REPACK
002070 915f      	POP  R21
002071 9508      	RET
                 
                 __CMPF12:
002072 2399      	TST  R25
002073 f09a      	BRMI __CMPF120
002074 2377      	TST  R23
002075 f042      	BRMI __CMPF121
002076 1797      	CP   R25,R23
002077 f048      	BRLO __CMPF122
002078 f429      	BRNE __CMPF121
002079 17ae      	CP   R26,R30
00207a 07bf      	CPC  R27,R31
00207b 0786      	CPC  R24,R22
00207c f020      	BRLO __CMPF122
00207d f031      	BREQ __CMPF123
                 __CMPF121:
00207e 9498      	CLZ
00207f 9488      	CLC
002080 9508      	RET
                 __CMPF122:
002081 9498      	CLZ
002082 9408      	SEC
002083 9508      	RET
                 __CMPF123:
002084 9418      	SEZ
002085 9488      	CLC
002086 9508      	RET
                 __CMPF120:
002087 2377      	TST  R23
002088 f7c2      	BRPL __CMPF122
002089 1797      	CP   R25,R23
00208a f398      	BRLO __CMPF121
00208b f7a9      	BRNE __CMPF122
00208c 17ea      	CP   R30,R26
00208d 07fb      	CPC  R31,R27
00208e 0768      	CPC  R22,R24
00208f f388      	BRLO __CMPF122
002090 f399      	BREQ __CMPF123
002091 cfec      	RJMP __CMPF121
                 
                 __SUBD12:
002092 1bea      	SUB  R30,R26
002093 0bfb      	SBC  R31,R27
002094 0b68      	SBC  R22,R24
002095 0b79      	SBC  R23,R25
002096 9508      	RET
                 
                 __SUBD21:
002097 1bae      	SUB  R26,R30
002098 0bbf      	SBC  R27,R31
002099 0b86      	SBC  R24,R22
00209a 0b97      	SBC  R25,R23
00209b 9508      	RET
                 
                 __ANEGW1:
00209c 95f1      	NEG  R31
00209d 95e1      	NEG  R30
00209e 40f0      	SBCI R31,0
00209f 9508      	RET
                 
                 __ANEGD1:
0020a0 95f0      	COM  R31
0020a1 9560      	COM  R22
0020a2 9570      	COM  R23
0020a3 95e1      	NEG  R30
0020a4 4fff      	SBCI R31,-1
0020a5 4f6f      	SBCI R22,-1
0020a6 4f7f      	SBCI R23,-1
0020a7 9508      	RET
                 
                 __LSLW12:
0020a8 23ee      	TST  R30
0020a9 2e0e      	MOV  R0,R30
0020aa 01fd      	MOVW R30,R26
0020ab f021      	BREQ __LSLW12R
                 __LSLW12L:
0020ac 0fee      	LSL  R30
0020ad 1fff      	ROL  R31
0020ae 940a      	DEC  R0
0020af f7e1      	BRNE __LSLW12L
                 __LSLW12R:
0020b0 9508      	RET
                 
                 __LSLW3:
0020b1 0fee      	LSL  R30
0020b2 1fff      	ROL  R31
                 __LSLW2:
0020b3 0fee      	LSL  R30
0020b4 1fff      	ROL  R31
0020b5 0fee      	LSL  R30
0020b6 1fff      	ROL  R31
0020b7 9508      	RET
                 
                 __ASRW4:
0020b8 95f5      	ASR  R31
0020b9 95e7      	ROR  R30
                 __ASRW3:
0020ba 95f5      	ASR  R31
0020bb 95e7      	ROR  R30
                 __ASRW2:
0020bc 95f5      	ASR  R31
0020bd 95e7      	ROR  R30
0020be 95f5      	ASR  R31
0020bf 95e7      	ROR  R30
0020c0 9508      	RET
                 
                 __MULW2_4:
0020c1 0faa      	LSL  R26
0020c2 1fbb      	ROL  R27
0020c3 0faa      	LSL  R26
0020c4 1fbb      	ROL  R27
0020c5 9508      	RET
                 
                 __CWD1:
0020c6 2f6f      	MOV  R22,R31
0020c7 0f66      	ADD  R22,R22
0020c8 0b66      	SBC  R22,R22
0020c9 2f76      	MOV  R23,R22
0020ca 9508      	RET
                 
                 __MULW12U:
0020cb 9ffa      	MUL  R31,R26
0020cc 2df0      	MOV  R31,R0
0020cd 9feb      	MUL  R30,R27
0020ce 0df0      	ADD  R31,R0
0020cf 9fea      	MUL  R30,R26
0020d0 2de0      	MOV  R30,R0
0020d1 0df1      	ADD  R31,R1
0020d2 9508      	RET
                 
                 __MULD12U:
0020d3 9f7a      	MUL  R23,R26
0020d4 2d70      	MOV  R23,R0
0020d5 9f6b      	MUL  R22,R27
0020d6 0d70      	ADD  R23,R0
0020d7 9ff8      	MUL  R31,R24
0020d8 0d70      	ADD  R23,R0
0020d9 9fe9      	MUL  R30,R25
0020da 0d70      	ADD  R23,R0
0020db 9f6a      	MUL  R22,R26
0020dc 2d60      	MOV  R22,R0
0020dd 0d71      	ADD  R23,R1
0020de 9ffb      	MUL  R31,R27
0020df 0d60      	ADD  R22,R0
0020e0 1d71      	ADC  R23,R1
0020e1 9fe8      	MUL  R30,R24
0020e2 0d60      	ADD  R22,R0
0020e3 1d71      	ADC  R23,R1
0020e4 2788      	CLR  R24
0020e5 9ffa      	MUL  R31,R26
0020e6 2df0      	MOV  R31,R0
0020e7 0d61      	ADD  R22,R1
0020e8 1f78      	ADC  R23,R24
0020e9 9feb      	MUL  R30,R27
0020ea 0df0      	ADD  R31,R0
0020eb 1d61      	ADC  R22,R1
0020ec 1f78      	ADC  R23,R24
0020ed 9fea      	MUL  R30,R26
0020ee 2de0      	MOV  R30,R0
0020ef 0df1      	ADD  R31,R1
0020f0 1f68      	ADC  R22,R24
0020f1 1f78      	ADC  R23,R24
0020f2 9508      	RET
                 
                 __MULW12:
0020f3 d058      	RCALL __CHKSIGNW
0020f4 dfd6      	RCALL __MULW12U
0020f5 f40e      	BRTC __MULW121
0020f6 dfa5      	RCALL __ANEGW1
                 __MULW121:
0020f7 9508      	RET
                 
                 __DIVW21U:
0020f8 2400      	CLR  R0
0020f9 2411      	CLR  R1
0020fa e190      	LDI  R25,16
                 __DIVW21U1:
0020fb 0faa      	LSL  R26
0020fc 1fbb      	ROL  R27
0020fd 1c00      	ROL  R0
0020fe 1c11      	ROL  R1
0020ff 1a0e      	SUB  R0,R30
002100 0a1f      	SBC  R1,R31
002101 f418      	BRCC __DIVW21U2
002102 0e0e      	ADD  R0,R30
002103 1e1f      	ADC  R1,R31
002104 c001      	RJMP __DIVW21U3
                 __DIVW21U2:
002105 60a1      	SBR  R26,1
                 __DIVW21U3:
002106 959a      	DEC  R25
002107 f799      	BRNE __DIVW21U1
002108 01fd      	MOVW R30,R26
002109 01d0      	MOVW R26,R0
00210a 9508      	RET
                 
                 __DIVW21:
00210b d040      	RCALL __CHKSIGNW
00210c dfeb      	RCALL __DIVW21U
00210d f40e      	BRTC __DIVW211
00210e df8d      	RCALL __ANEGW1
                 __DIVW211:
00210f 9508      	RET
                 
                 __DIVD21U:
002110 933f      	PUSH R19
002111 934f      	PUSH R20
002112 935f      	PUSH R21
002113 2400      	CLR  R0
002114 2411      	CLR  R1
002115 2744      	CLR  R20
002116 2755      	CLR  R21
002117 e230      	LDI  R19,32
                 __DIVD21U1:
002118 0faa      	LSL  R26
002119 1fbb      	ROL  R27
00211a 1f88      	ROL  R24
00211b 1f99      	ROL  R25
00211c 1c00      	ROL  R0
00211d 1c11      	ROL  R1
00211e 1f44      	ROL  R20
00211f 1f55      	ROL  R21
002120 1a0e      	SUB  R0,R30
002121 0a1f      	SBC  R1,R31
002122 0b46      	SBC  R20,R22
002123 0b57      	SBC  R21,R23
002124 f428      	BRCC __DIVD21U2
002125 0e0e      	ADD  R0,R30
002126 1e1f      	ADC  R1,R31
002127 1f46      	ADC  R20,R22
002128 1f57      	ADC  R21,R23
002129 c001      	RJMP __DIVD21U3
                 __DIVD21U2:
00212a 60a1      	SBR  R26,1
                 __DIVD21U3:
00212b 953a      	DEC  R19
00212c f759      	BRNE __DIVD21U1
00212d 01fd      	MOVW R30,R26
00212e 01bc      	MOVW R22,R24
00212f 01d0      	MOVW R26,R0
002130 01ca      	MOVW R24,R20
002131 915f      	POP  R21
002132 914f      	POP  R20
002133 913f      	POP  R19
002134 9508      	RET
                 
                 __DIVD21:
002135 d024      	RCALL __CHKSIGND
002136 dfd9      	RCALL __DIVD21U
002137 f40e      	BRTC __DIVD211
002138 df67      	RCALL __ANEGD1
                 __DIVD211:
002139 9508      	RET
                 
                 __MODW21:
00213a 94e8      	CLT
00213b ffb7      	SBRS R27,7
00213c c004      	RJMP __MODW211
00213d 95a0      	COM  R26
00213e 95b0      	COM  R27
00213f 9611      	ADIW R26,1
002140 9468      	SET
                 __MODW211:
002141 fdf7      	SBRC R31,7
002142 df59      	RCALL __ANEGW1
002143 dfb4      	RCALL __DIVW21U
002144 01fd      	MOVW R30,R26
002145 f40e      	BRTC __MODW212
002146 df55      	RCALL __ANEGW1
                 __MODW212:
002147 9508      	RET
                 
                 __MODD21U:
002148 dfc7      	RCALL __DIVD21U
002149 01fd      	MOVW R30,R26
00214a 01bc      	MOVW R22,R24
00214b 9508      	RET
                 
                 __CHKSIGNW:
00214c 94e8      	CLT
00214d fff7      	SBRS R31,7
00214e c002      	RJMP __CHKSW1
00214f df4c      	RCALL __ANEGW1
002150 9468      	SET
                 __CHKSW1:
002151 ffb7      	SBRS R27,7
002152 c006      	RJMP __CHKSW2
002153 95a0      	COM  R26
002154 95b0      	COM  R27
002155 9611      	ADIW R26,1
002156 f800      	BLD  R0,0
002157 9403      	INC  R0
002158 fa00      	BST  R0,0
                 __CHKSW2:
002159 9508      	RET
                 
                 __CHKSIGND:
00215a 94e8      	CLT
00215b ff77      	SBRS R23,7
00215c c002      	RJMP __CHKSD1
00215d df42      	RCALL __ANEGD1
00215e 9468      	SET
                 __CHKSD1:
00215f ff97      	SBRS R25,7
002160 c00b      	RJMP __CHKSD2
002161 2400      	CLR  R0
002162 95a0      	COM  R26
002163 95b0      	COM  R27
002164 9580      	COM  R24
002165 9590      	COM  R25
002166 9611      	ADIW R26,1
002167 1d80      	ADC  R24,R0
002168 1d90      	ADC  R25,R0
002169 f800      	BLD  R0,0
00216a 9403      	INC  R0
00216b fa00      	BST  R0,0
                 __CHKSD2:
00216c 9508      	RET
                 
                 __GETW1P:
00216d 91ed      	LD   R30,X+
00216e 91fc      	LD   R31,X
00216f 9711      	SBIW R26,1
002170 9508      	RET
                 
                 __GETD1P:
002171 91ed      	LD   R30,X+
002172 91fd      	LD   R31,X+
002173 916d      	LD   R22,X+
002174 917c      	LD   R23,X
002175 9713      	SBIW R26,3
002176 9508      	RET
                 
                 __PUTDP1:
002177 93ed      	ST   X+,R30
002178 93fd      	ST   X+,R31
002179 936d      	ST   X+,R22
00217a 937c      	ST   X,R23
00217b 9508      	RET
                 
                 __GETW1PF:
00217c 9005      	LPM  R0,Z+
00217d 91f4      	LPM  R31,Z
00217e 2de0      	MOV  R30,R0
00217f 9508      	RET
                 
                 __GETD1PF:
002180 9005      	LPM  R0,Z+
002181 9015      	LPM  R1,Z+
002182 9165      	LPM  R22,Z+
002183 9174      	LPM  R23,Z
002184 01f0      	MOVW R30,R0
002185 9508      	RET
                 
                 __GETD1S0:
002186 81e8      	LD   R30,Y
002187 81f9      	LDD  R31,Y+1
002188 816a      	LDD  R22,Y+2
002189 817b      	LDD  R23,Y+3
00218a 9508      	RET
                 
                 __GETD2S0:
00218b 81a8      	LD   R26,Y
00218c 81b9      	LDD  R27,Y+1
00218d 818a      	LDD  R24,Y+2
00218e 819b      	LDD  R25,Y+3
00218f 9508      	RET
                 
                 __PUTD1S0:
002190 83e8      	ST   Y,R30
002191 83f9      	STD  Y+1,R31
002192 836a      	STD  Y+2,R22
002193 837b      	STD  Y+3,R23
002194 9508      	RET
                 
                 __PUTDZ20:
002195 83a0      	ST   Z,R26
002196 83b1      	STD  Z+1,R27
002197 8382      	STD  Z+2,R24
002198 8393      	STD  Z+3,R25
002199 9508      	RET
                 
                 __PUTPARD1:
00219a 937a      	ST   -Y,R23
00219b 936a      	ST   -Y,R22
00219c 93fa      	ST   -Y,R31
00219d 93ea      	ST   -Y,R30
00219e 9508      	RET
                 
                 __PUTPARD2:
00219f 939a      	ST   -Y,R25
0021a0 938a      	ST   -Y,R24
0021a1 93ba      	ST   -Y,R27
0021a2 93aa      	ST   -Y,R26
0021a3 9508      	RET
                 
                 __PUTPARL:
0021a4 27bb      	CLR  R27
                 __PUTPAR:
0021a5 0fea      	ADD  R30,R26
0021a6 1ffb      	ADC  R31,R27
                 __PUTPAR0:
0021a7 9002      	LD   R0,-Z
0021a8 920a      	ST   -Y,R0
0021a9 9711      	SBIW R26,1
0021aa f7e1      	BRNE __PUTPAR0
0021ab 9508      	RET
                 
                 __SWAPD12:
0021ac 2e18      	MOV  R1,R24
0021ad 2f86      	MOV  R24,R22
0021ae 2d61      	MOV  R22,R1
0021af 2e19      	MOV  R1,R25
0021b0 2f97      	MOV  R25,R23
0021b1 2d71      	MOV  R23,R1
                 
                 __SWAPW12:
0021b2 2e1b      	MOV  R1,R27
0021b3 2fbf      	MOV  R27,R31
0021b4 2df1      	MOV  R31,R1
                 
                 __SWAPB12:
0021b5 2e1a      	MOV  R1,R26
0021b6 2fae      	MOV  R26,R30
0021b7 2de1      	MOV  R30,R1
0021b8 9508      	RET
                 
                 __COPYMML:
0021b9 2799      	CLR  R25
                 __COPYMM:
0021ba 93ef      	PUSH R30
0021bb 93ff      	PUSH R31
                 __COPYMM0:
0021bc 9161      	LD   R22,Z+
0021bd 936d      	ST   X+,R22
0021be 9701      	SBIW R24,1
0021bf f7e1      	BRNE __COPYMM0
0021c0 91ff      	POP  R31
0021c1 91ef      	POP  R30
0021c2 9508      	RET
                 
                 __CPD10:
0021c3 9730      	SBIW R30,0
0021c4 4060      	SBCI R22,0
0021c5 4070      	SBCI R23,0
0021c6 9508      	RET
                 
                 __CPD02:
0021c7 2400      	CLR  R0
0021c8 160a      	CP   R0,R26
0021c9 060b      	CPC  R0,R27
0021ca 0608      	CPC  R0,R24
0021cb 0609      	CPC  R0,R25
0021cc 9508      	RET
                 
                 __CPD12:
0021cd 17ea      	CP   R30,R26
0021ce 07fb      	CPC  R31,R27
0021cf 0768      	CPC  R22,R24
0021d0 0779      	CPC  R23,R25
0021d1 9508      	RET
                 
                 __CPD21:
0021d2 17ae      	CP   R26,R30
0021d3 07bf      	CPC  R27,R31
0021d4 0786      	CPC  R24,R22
0021d5 0797      	CPC  R25,R23
0021d6 9508      	RET
                 
                 __SAVELOCR6:
0021d7 935a      	ST   -Y,R21
                 __SAVELOCR5:
0021d8 934a      	ST   -Y,R20
                 __SAVELOCR4:
0021d9 933a      	ST   -Y,R19
                 __SAVELOCR3:
0021da 932a      	ST   -Y,R18
                 __SAVELOCR2:
0021db 931a      	ST   -Y,R17
0021dc 930a      	ST   -Y,R16
0021dd 9508      	RET
                 
                 __LOADLOCR6:
0021de 815d      	LDD  R21,Y+5
                 __LOADLOCR5:
0021df 814c      	LDD  R20,Y+4
                 __LOADLOCR4:
0021e0 813b      	LDD  R19,Y+3
                 __LOADLOCR3:
0021e1 812a      	LDD  R18,Y+2
                 __LOADLOCR2:
0021e2 8119      	LDD  R17,Y+1
0021e3 8108      	LD   R16,Y
0021e4 9508      	RET
                 
                 ;END OF CODE MARKER
                 __END_OF_CODE:


RESOURCE USE INFORMATION
------------------------

Notice:
The register and instruction counts are symbol table hit counts,
and hence implicitly used resources are not counted, eg, the
'lpm' instruction without operands implicitly uses r0 and z,
none of which are counted.

x,y,z are separate entities in the symbol table and are
counted separately from r26..r31 here.

.dseg memory usage only counts static data declared with .byte

ATxmega128A1 register use summary:
r0 : 108 r1 :  53 r2 :   8 r3 :   3 r4 :   3 r5 :   2 r6 :   6 r7 :   5 
r8 :   5 r9 :   7 r10:   3 r11:   6 r12:   4 r13:   4 r14:   0 r15:   7 
r16:  72 r17:  88 r18:  38 r19:  29 r20:  34 r21:  72 r22: 254 r23: 225 
r24: 217 r25: 177 r26: 599 r27: 281 r28:  47 r29:   1 r30:1542 r31: 444 
x  :  36 y  : 698 z  :  42 
Registers used: 34 out of 35 (97.1%)

ATxmega128A1 instruction use summary:
.lds  :   0 .lds.l:   0 .sts  :   0 .sts.l:   0 adc   :  47 add   :  41 
adiw  :  62 and   :  11 andi  :  95 asr   :   4 bclr  :   0 bld   :   4 
brbc  :   0 brbs  :   0 brcc  :  22 brcs  :   1 break :   0 breq  :  59 
brge  :   2 brhc  :   0 brhs  :   0 brid  :   0 brie  :   0 brlo  :  24 
brlt  :   4 brmi  :  10 brne  :  75 brpl  :  21 brsh  :  16 brtc  :   6 
brts  :   4 brvc  :   4 brvs  :   4 bset  :   0 bst   :   6 call  : 405 
cbi   :   0 cbr   :   2 clc   :   3 clh   :   0 cli   :   8 cln   :   0 
clr   :  61 cls   :   0 clt   :   7 clv   :   0 clz   :   2 com   :  22 
cp    :  16 cpc   :  44 cpi   :  72 cpse  :   0 dec   :  17 des   :   0 
eicall:   0 eijmp :   0 elpm  :   0 eor   :   7 fmul  :   0 fmuls :   0 
fmulsu:   0 icall :   2 ijmp  :   0 in    :  15 inc   :   7 jmp   : 179 
ld    : 107 ldd   : 358 ldi   : 777 lds   : 287 lpm   :  35 lsl   :  31 
lsr   :   5 mov   :  97 movw  : 148 mul   :  42 muls  :   0 mulsu :   0 
neg   :   4 nop   :   0 or    :  14 ori   :  25 out   :  39 pop   : 128 
push  : 128 rcall : 141 ret   : 106 reti  :   6 rjmp  : 119 rol   :  47 
ror   :  23 sbc   :  23 sbci  :  63 sbi   :   0 sbic  :   0 sbis  :   0 
sbiw  :  45 sbr   :   5 sbrc  :   4 sbrs  :   6 sec   :   5 seh   :   0 
sei   :   1 sen   :   0 ser   :  10 ses   :   0 set   :   6 sev   :   0 
sez   :   1 sleep :   0 spm   :   0 st    : 210 std   :  78 sts   : 456 
sub   :  13 subi  :  73 swap  :   3 tst   :  36 wdr   :   1 
Instructions used: 80 out of 119 (67.2%)

ATxmega128A1 memory use summary [bytes]:
Segment   Begin    End      Code   Data   Used    Size   Use%
---------------------------------------------------------------
[.cseg] 0x000000 0x0043ca  12824   4530  17354  135168  12.8%
[.dseg] 0x002000 0x003a2c      0   4652   4652   16383  28.4%
[.eseg] 0x000000 0x000000      0      0      0    2048   0.0%

Assembly complete, 0 errors, 14 warnings
